(lp0
ccopy_reg
_reconstructor
p1
(c__main__
Animation
p2
c__builtin__
object
p3
Ntp4
Rp5
(dp6
S'duration'
p7
F1.0
sS'frames'
p8
(lp9
(lp10
F-1.4707963267948965
aF-2.7707963267948976
aF2.8707963267948977
aF-1.2
aI-1
aF-4.5269908169872393
aF-4.9977871437821397
aI0
aI0
aF76.0
aa(lp11
F-1.5707963267948966
aF-2.6707963267948975
aF2.7707963267948976
aF-1.2
aI-1
aF-4.5269908169872393
aF-4.9977871437821397
aI0
aI0
aF76.0
aa(lp12
F-1.5707963267948966
aF-2.6707963267948975
aF2.7707963267948976
aF-1.2
aI-1
aF-4.5269908169872393
aF-4.9977871437821397
aI0
aI0
aF76.0
aa(lp13
F-1.5707963267948966
aF-2.6707963267948975
aF2.7707963267948976
aF-1.2
aI-1
aF-4.5269908169872393
aF-4.9977871437821397
aI0
aI0
aF76.0
aa(lp14
F-1.5707963267948966
aF-2.6707963267948975
aF2.7707963267948976
aF-1.2
aI-1
aF-4.5269908169872393
aF-4.9977871437821397
aI0
aI0
aF76.0
aa(lp15
F-1.5707963267948966
aF-2.6707963267948975
aF2.7707963267948976
aF-1.2
aI-1
aF-4.5269908169872393
aF-4.9977871437821397
aI0
aI0
aF76.0
aasS'repeat'
p16
I00
sbag1
(g2
g3
Ntp17
Rp18
(dp19
g7
F1.0
sg8
(lp20
(lp21
F-1.2707963267948963
aF-3.5707963267948979
aF4.4707963267948969
aF-1.9000000000000006
aF-2.100000000000001
aF-4.1269908169872407
aF-6.0977871437821358
aF0.40000000000000002
aF1.3999999999999999
aF84.0
aa(lp22
F-1.2707963267948963
aF-3.0707963267948974
aF3.3707963267948982
aF-1.2
aF-1.7000000000000006
aF-4.7269908169872386
aF-5.2977871437821387
aF1.8000000000000003
aF0.59999999999999998
aF79.0
aa(lp23
F-1.2707963267948963
aF-1.9707963267948969
aF2.8707963267948977
aF-1.2999999999999998
aF-1.5000000000000004
aF-5.726990816987235
aF-4.6977871437821408
aF2.0000000000000004
aF0.59999999999999998
aF80.0
aa(lp24
F-1.2707963267948963
aF-1.7707963267948967
aF2.6707963267948975
aF-1.6000000000000003
aF-2.2000000000000011
aF-5.726990816987235
aF-4.2977871437821422
aF0.89999999999999969
aF0.89999999999999991
aF85.0
aa(lp25
F-1.2707963267948963
aF-2.5707963267948974
aF3.3707963267948982
aF-1.4000000000000001
aF-1.2000000000000002
aF-5.3269908169872364
aF-4.6977871437821408
aF0.59999999999999976
aF2.2000000000000006
aF79.0
aa(lp26
F-1.2707963267948963
aF-3.5707963267948983
aF4.170796326794898
aF-1.6000000000000003
aF-1.9000000000000008
aF-4.5269908169872393
aF-5.7977871437821369
aF0.19999999999999982
aF2.1000000000000005
aF76.0
aasg16
I01
sbag1
(g2
g3
Ntp27
Rp28
(dp29
g7
F0.30000000000000016
sg8
(lp30
(lp31
F-1.4707963267948965
aF-1.5707963267948966
aF4.3707963267948973
aF-1.3
aF-1.2000000000000002
aF-5.5269908169872357
aF-5.7977871437821369
aF1.8000000000000005
aF1.8000000000000005
aF90.0
aa(lp32
F-1.2707963267948963
aF-5.0707963267948948
aF1.0707963267948957
aF-0.5
aF-0.60000000000000009
aF-4.8269908169872382
aF-4.5977871437821412
aF0.59999999999999998
aF0.29999999999999982
aF77.0
aasg16
I01
sba.