(lp0
ccopy_reg
_reconstructor
p1
(c__main__
Animation
p2
c__builtin__
object
p3
Ntp4
Rp5
(dp6
S'duration'
p7
F1.0
sS'frames'
p8
(lp9
(lp10
F-1.4707963267948965
aF-2.7707963267948976
aF2.8707963267948977
aF-1.2
aI-1
aF-4.526990816987239
aF-4.99778714378214
aI0
aI0
aF76.0
aa(lp11
F-1.5707963267948966
aF-2.6707963267948975
aF2.7707963267948976
aF-1.2
aI-1
aF-4.526990816987239
aF-4.99778714378214
aI0
aI0
aF76.0
aasS'repeat'
p12
I01
sbag1
(g2
g3
Ntp13
Rp14
(dp15
g7
F1.0
sg8
(lp16
(lp17
F-1.2707963267948963
aF-3.570796326794898
aF4.470796326794897
aF-1.9000000000000006
aF-2.100000000000001
aF-4.126990816987241
aF-6.097787143782136
aF0.4
aF1.4
aF84.0
aa(lp18
F-1.2707963267948963
aF-3.0707963267948974
aF3.370796326794898
aF-1.2
aF-1.7000000000000006
aF-4.7269908169872386
aF-5.297787143782139
aF1.8000000000000003
aF0.6
aF79.0
aa(lp19
F-1.2707963267948963
aF-1.970796326794897
aF2.8707963267948977
aF-1.2999999999999998
aF-1.5000000000000004
aF-5.726990816987235
aF-4.697787143782141
aF2.0000000000000004
aF0.6
aF80.0
aa(lp20
F-1.2707963267948963
aF-1.7707963267948967
aF2.6707963267948975
aF-1.6000000000000003
aF-2.200000000000001
aF-5.726990816987235
aF-4.297787143782142
aF0.8999999999999997
aF0.8999999999999999
aF85.0
aa(lp21
F-1.2707963267948963
aF-2.5707963267948974
aF3.370796326794898
aF-1.4000000000000001
aF-1.2000000000000002
aF-5.326990816987236
aF-4.697787143782141
aF0.5999999999999998
aF2.2000000000000006
aF79.0
aa(lp22
F-1.2707963267948963
aF-3.5707963267948983
aF4.170796326794898
aF-1.6000000000000003
aF-1.9000000000000008
aF-4.526990816987239
aF-5.797787143782137
aF0.19999999999999982
aF2.1000000000000005
aF76.0
aasg12
I01
sbag1
(g2
g3
Ntp23
Rp24
(dp25
g7
F0.30000000000000016
sg8
(lp26
(lp27
F-1.4707963267948965
aF-1.5707963267948966
aF4.370796326794897
aF-1.3
aF-1.2000000000000002
aF-5.526990816987236
aF-5.797787143782137
aF1.8000000000000005
aF1.8000000000000005
aF90.0
aa(lp28
F-1.2707963267948963
aF-5.070796326794895
aF1.0707963267948957
aF-0.5
aF-0.6000000000000001
aF-4.826990816987238
aF-4.597787143782141
aF0.6
aF0.2999999999999998
aF77.0
aasg12
I01
sbag1
(g2
g3
Ntp29
Rp30
(dp31
g7
F1.0
sg8
(lp32
(lp33
F-1.8707963267948968
aF-1.3707963267948964
aF-1.0292036732051038
aF0.6000000000000001
aF0.29999999999999993
aF-5.526990816987236
aF-5.797787143782137
aF0.30000000000000004
aF0.4
aI80
aasg12
I01
sbag1
(g2
g3
Ntp34
Rp35
(dp36
g7
F0.5000000000000001
sg8
(lp37
(lp38
F-1.1707963267948962
aF1.0292036732051035
aF1.5707963267948966
aF-0.8999999999999998
aI-1
aF-5.626990816987235
aF-5.8977871437821365
aF2.0000000000000004
aF1.9000000000000006
aI98
aa(lp39
F-1.1707963267948962
aF1.529203673205104
aF1.970796326794897
aF-0.8999999999999998
aI-1
aF-5.0269908169872375
aF-5.497787143782138
aF0.8999999999999997
aF0.8999999999999999
aI85
aasg12
I01
sba.