(lp0
ccopy_reg
_reconstructor
p1
(c__main__
Animation
p2
c__builtin__
object
p3
Ntp4
Rp5
(dp6
S'duration'
p7
F1.0
sS'frames'
p8
(lp9
(lp10
F-1.4707963267948965
aF-2.7707963267948976
aF2.8707963267948977
aF-1.2
aI-1
aF-4.526990816987239
aF-4.99778714378214
aI0
aI0
aa(lp11
F-1.5707963267948966
aF-2.6707963267948975
aF2.7707963267948976
aF-1.2
aI-1
aF-4.526990816987239
aF-4.99778714378214
aI0
aI0
aasbag1
(g2
g3
Ntp12
Rp13
(dp14
g7
F1.0
sg8
(lp15
(lp16
F-1.3707963267948964
aF-2.5707963267948974
aF2.8707963267948977
aF-0.4999999999999999
aF-0.40000000000000013
aF-4.126990816987241
aF-5.797787143782137
aF0.1
aF1.8000000000000005
aasba.