ccopy_reg
_reconstructor
p0
(clevel
Level
p1
c__builtin__
object
p2
Ntp3
Rp4
(dp5
S'snaps'
p6
(dp7
(F-621.63999999999999
F-183.62570066272184
tp8
I2
s(F-190.0
F-184.5257
tp9
I2
s(F-958.0
F273.37356725584789
tp10
I2
s(F-348.0
F277.37356725584789
tp11
I1
s(F211.0
F-184.5257
tp12
I2
s(F-621.63999999999999
F-477.62570066272184
tp13
I3
s(F-190.63999999999999
F-477.62570066272184
tp14
I3
s(F-347.17999999999995
F-233.62570000149023
tp15
I1
s(F-347.0
F-63.62643274415214
tp16
I2
s(F-622.93999999999994
F-276.62661469605268
tp17
I1
s(F-953.63999999999999
F-183.62570066272184
tp18
I2
s(F-191.93999999999994
F-278.62661469605268
tp19
I1
s(F190.0
F271.37356725584789
tp20
I2
ssS'goal'
p21
g0
(cportal
Portal
p22
g2
Ntp23
Rp24
(dp25
S'position'
p26
(F-846.0
F-98.62643274415214
tp27
sbsS'gvols'
p28
(lp29
g0
(cgravityvolume
GravityVolume
p30
g2
Ntp31
Rp32
(dp33
S'vertices'
p34
(lp35
(F-622.93999999999994
F-276.62661469605268
tp36
a(F-191.93999999999994
F-278.62661469605268
tp37
a(F-190.63999999999999
F-477.62570066272184
tp38
a(F-621.63999999999999
F-477.62570066272184
tp39
asS'g'
p40
(F-5.0
F638.0
tp41
sbasS'coins'
p42
(lp43
g0
(ccoin
Coin
p44
g2
Ntp45
Rp46
(dp47
g26
(F-234.74221313154612
F-423.94585371579996
tp48
sbag0
(g44
g2
Ntp49
Rp50
(dp51
g26
(F-596.74221313154612
F-423.94585371579996
tp52
sbag0
(g44
g2
Ntp53
Rp54
(dp55
g26
(F-346.37416556808296
F-337.8705491209497
tp56
sbag0
(g44
g2
Ntp57
Rp58
(dp59
g26
(F-454.37416556808296
F-332.8705491209497
tp60
sbasS'lines'
p61
(lp62
g0
(clevel
Line
p63
g2
Ntp64
Rp65
(dp66
S'lethal'
p67
I00
sS'start'
p68
(F-190.0
F-184.5257
tp69
sS'end'
p70
(F211.0
F-184.5257
tp71
sbag0
(g63
g2
Ntp72
Rp73
(dp74
g67
I00
sg68
(F-190.0
F-184.5257
tp75
sg70
(F-190.63999999999999
F-477.62570066272184
tp76
sbag0
(g63
g2
Ntp77
Rp78
(dp79
g67
I01
sg68
(F-190.63999999999999
F-477.62570066272184
tp80
sg70
(F-621.63999999999999
F-477.62570066272184
tp81
sbag0
(g63
g2
Ntp82
Rp83
(dp84
g67
I00
sg68
(F-621.63999999999999
F-477.62570066272184
tp85
sg70
(F-621.63999999999999
F-183.62570066272184
tp86
sbag0
(g63
g2
Ntp87
Rp88
(dp89
g67
I00
sg68
(F-621.63999999999999
F-183.62570066272184
tp90
sg70
(F-953.63999999999999
F-183.62570066272184
tp91
sbag0
(g63
g2
Ntp92
Rp93
(dp94
g67
I00
sg68
(F-621.63999999999999
F-183.62570066272184
tp95
sg70
(F-621.63999999999999
F-477.62570066272184
tp96
sbag0
(g63
g2
Ntp97
Rp98
(dp99
g67
I00
sg68
(F-953.63999999999999
F-183.62570066272184
tp100
sg70
(F-958.0
F273.37356725584789
tp101
sbag0
(g63
g2
Ntp102
Rp103
(dp104
g67
I00
sg68
(F-958.0
F273.37356725584789
tp105
sg70
(F190.0
F271.37356725584789
tp106
sbag0
(g63
g2
Ntp107
Rp108
(dp109
g67
I00
sg68
(F190.0
F271.37356725584789
tp110
sg70
(F211.0
F-184.5257
tp111
sbag0
(g63
g2
Ntp112
Rp113
(dp114
g67
I00
sg68
(F-347.0
F-63.62643274415214
tp115
sg70
(F-348.0
F277.37356725584789
tp116
sbag0
(g63
g2
Ntp117
Rp118
(dp119
g67
I01
sg68
(F-347.0
F-63.62643274415214
tp120
sg70
(F-347.17999999999995
F-233.62570000149023
tp121
sbasS'emitters'
p122
(lp123
g0
(cparticles
Emitter
p124
g2
Ntp125
Rp126
(dp127
S'position'
p128
(F-404.17999999999995
F-381.62570000149026
tp129
sS'counter'
p130
F0.0009999999999989323
sbasb.