ccopy_reg
_reconstructor
p0
(clevel
Level
p1
c__builtin__
object
p2
Ntp3
Rp4
(dp5
S'snaps'
p6
(dp7
(F933.424258083219
F23.277507443146249
tp8
I1
s(F-190.0
F-184.5257
tp9
I2
s(F762.424258083219
F329.27750744314625
tp10
I1
s(F597.0
F-80.625700014542645
tp11
I1
s(F211.0
F-184.5257
tp12
I3
s(F-211.575741916781
F184.27750744314625
tp13
I2
s(F601.0
F-182.62570001454264
tp14
I3
s(F940.424258083219
F328.27750744314625
tp15
I3
s(F215.0
F-69.625700014542645
tp16
I1
s(F754.424258083219
F22.277507443146249
tp17
I1
s(F871.424258083219
F531.27750744314631
tp18
I2
s(F934.0
F-177.62570001454264
tp19
I2
s(F515.424258083219
F532.27750744314631
tp20
I2
ssS'goal'
p21
g0
(cportal
Portal
p22
g2
Ntp23
Rp24
(dp25
S'position'
p26
(F830.424258083219
F411.27750744314625
tp27
sbsS'lines'
p28
(lp29
g0
(clevel
Line
p30
g2
Ntp31
Rp32
(dp33
S'lethal'
p34
I00
sS'start'
p35
(F-190.0
F-184.5257
tp36
sS'end'
p37
(F211.0
F-184.5257
tp38
sbag0
(g30
g2
Ntp39
Rp40
(dp41
g34
I01
sg35
(F211.0
F-184.5257
tp42
sg37
(F601.0
F-182.62570001454264
tp43
sbag0
(g30
g2
Ntp44
Rp45
(dp46
g34
I00
sg35
(F601.0
F-182.62570001454264
tp47
sg37
(F934.0
F-177.62570001454264
tp48
sbag0
(g30
g2
Ntp49
Rp50
(dp51
g34
I00
sg35
(F934.0
F-177.62570001454264
tp52
sg37
(F940.424258083219
F328.27750744314625
tp53
sbag0
(g30
g2
Ntp54
Rp55
(dp56
g34
I00
sg35
(F940.424258083219
F328.27750744314625
tp57
sg37
(F871.424258083219
F531.27750744314631
tp58
sbag0
(g30
g2
Ntp59
Rp60
(dp61
g34
I00
sg35
(F871.424258083219
F531.27750744314631
tp62
sg37
(F515.424258083219
F532.27750744314631
tp63
sbag0
(g30
g2
Ntp64
Rp65
(dp66
g34
I00
sg35
(F515.424258083219
F532.27750744314631
tp67
sg37
(F-211.575741916781
F184.27750744314625
tp68
sbag0
(g30
g2
Ntp69
Rp70
(dp71
g34
I00
sg35
(F-211.575741916781
F184.27750744314625
tp72
sg37
(F-190.0
F-184.5257
tp73
sbasS'coins'
p74
(lp75
sS'gvols'
p76
(lp77
g0
(cgravityvolume
GravityVolume
p78
g2
Ntp79
Rp80
(dp81
S'vertices'
p82
(lp83
(F215.0
F-69.625700014542645
tp84
a(F211.0
F-184.5257
tp85
a(F601.0
F-182.62570001454264
tp86
a(F597.0
F-80.625700014542645
tp87
asS'g'
p88
(F2.0
F356.0
tp89
sbag0
(g78
g2
Ntp90
Rp91
(dp92
g82
(lp93
(F933.424258083219
F23.277507443146249
tp94
a(F754.424258083219
F22.277507443146249
tp95
a(F762.424258083219
F329.27750744314625
tp96
a(F940.424258083219
F328.27750744314625
tp97
asg88
(F466.0
F0.0
tp98
sbasS'emitters'
p99
(lp100
g0
(cparticles
Emitter
p101
g2
Ntp102
Rp103
(dp104
S'position'
p105
(F411.0
F-156.63869453161215
tp106
sS'counter'
p107
F0.046999999999996961
sbasb.