ccopy_reg
_reconstructor
p0
(clevel
Level
p1
c__builtin__
object
p2
Ntp3
Rp4
(dp5
S'snaps'
p6
(dp7
(F843.8
F-139.87911002479757
tp8
I3
s(F616.1384141159896
F-241.97911002628774
tp9
I1
s(F1065.6
F-95.87911015617397
tp10
I2
s(F547.6005761019954
F-138.97911014328355
tp11
I1
s(F1804.0626830007839
F-339.1245338647408
tp12
I1
s(F856.1384141159896
F-358.97911002628774
tp13
I3
s(F939.0
F-1222.9708860097967
tp14
I1
s(F919.1384141159896
F-178.97911002628774
tp15
I4
s(F-501.0
F-622.8791100239195
tp16
I1
s(F570.1384141159896
F-358.97911002628774
tp17
I1
s(F592.0
F-625.9708860097966
tp18
I1
s(F-698.8615858840104
F-241.97911002628774
tp19
I2
s(F285.1384141159896
F-358.97911002628774
tp20
I1
s(F1802.062683000784
F-334.1245338647408
tp21
I1
s(F1212.1384141159897
F-386.97911002628774
tp22
I1
s(F938.0
F-1230.9708860097967
tp23
I1
s(F-12.861585884010424
F-477.97911002628774
tp24
I2
s(F-209.86158588401042
F-358.97911002628774
tp25
I1
s(F1201.1384141159897
F-16.979110026287742
tp26
I1
s(F-93.86158588401042
F-241.97911002628774
tp27
I1
s(F935.1384141159897
F-622.9791100262878
tp28
I3
s(F268.0
F-1230.9708860097967
tp29
I1
s(F919.1384141159896
F-297.97911002628774
tp30
I6
s(F272.5999999999999
F-136.7791100224293
tp31
I1
s(F195.13841411598958
F-241.97911002628774
tp32
I1
s(F1804.0626830007839
F-69.12453386474081
tp33
I2
s(F1063.6
F-339.87911015617397
tp34
I2
s(F-208.4000000000001
F-136.7791100224293
tp35
I1
s(F2110.0
F-902.9708860097967
tp36
I1
s(F570.8
F-139.87911002479757
tp37
I2
s(F974.1384141159896
F100.02088997371226
tp38
I1
s(F818.0
F-246.87911002391945
tp39
I1
s(F2105.0
F-1222.9708860097967
tp40
I1
s(F938.0
F-897.9708860097967
tp41
I1
ssS'goal'
p42
g0
(cportal
Portal
p43
g2
Ntp44
Rp45
(dp46
S'position'
p47
(F-0.8615858840104238
F-467.97911002628774
tp48
sbsS'lines'
p49
(lp50
g0
(clevel
Line
p51
g2
Ntp52
Rp53
(dp54
S'lethal'
p55
I00
sS'start'
p56
(F-208.4000000000001
F-136.7791100224293
tp57
sS'end'
p58
(F272.5999999999999
F-136.7791100224293
tp59
sbag0
(g51
g2
Ntp60
Rp61
(dp62
g55
I00
sg56
(F570.8
F-139.87911002479757
tp63
sg58
(F843.8
F-139.87911002479757
tp64
sbag0
(g51
g2
Ntp65
Rp66
(dp67
g55
I00
sg56
(F856.1384141159896
F-358.97911002628774
tp68
sg58
(F570.1384141159896
F-358.97911002628774
tp69
sbag0
(g51
g2
Ntp70
Rp71
(dp72
g55
I00
sg56
(F285.1384141159896
F-358.97911002628774
tp73
sg58
(F-209.86158588401042
F-358.97911002628774
tp74
sbag0
(g51
g2
Ntp75
Rp76
(dp77
g55
I01
sg56
(F195.13841411598958
F-241.97911002628774
tp78
sg58
(F616.1384141159896
F-241.97911002628774
tp79
sbag0
(g51
g2
Ntp80
Rp81
(dp82
g55
I01
sg56
(F-93.86158588401042
F-241.97911002628774
tp83
sg58
(F-698.8615858840104
F-241.97911002628774
tp84
sbag0
(g51
g2
Ntp85
Rp86
(dp87
g55
I00
sg56
(F-12.861585884010424
F-477.97911002628774
tp88
sg58
(F-12.861585884010424
F-477.97911002628774
tp89
sbag0
(g51
g2
Ntp90
Rp91
(dp92
g55
I00
sg56
(F843.8
F-139.87911002479757
tp93
sg58
(F919.1384141159896
F-178.97911002628774
tp94
sbag0
(g51
g2
Ntp95
Rp96
(dp97
g55
I00
sg56
(F919.1384141159896
F-178.97911002628774
tp98
sg58
(F919.1384141159896
F-297.97911002628774
tp99
sbag0
(g51
g2
Ntp100
Rp101
(dp102
g55
I00
sg56
(F919.1384141159896
F-297.97911002628774
tp103
sg58
(F856.1384141159896
F-358.97911002628774
tp104
sbag0
(g51
g2
Ntp105
Rp106
(dp107
g55
I00
sg56
(F919.1384141159896
F-297.97911002628774
tp108
sg58
(F919.1384141159896
F-297.97911002628774
tp109
sbag0
(g51
g2
Ntp110
Rp111
(dp112
g55
I00
sg56
(F570.8
F-139.87911002479757
tp113
sg58
(F547.6005761019954
F-138.97911014328355
tp114
sbag0
(g51
g2
Ntp115
Rp116
(dp117
g55
I00
sg56
(F1804.0626830007839
F-69.12453386474081
tp118
sg58
(F1802.062683000784
F-334.1245338647408
tp119
sbasS'coins'
p120
(lp121
g0
(ccoin
Coin
p122
g2
Ntp123
Rp124
(dp125
g47
(F340.2499999999996
F60.12087230956588
tp126
sbag0
(g122
g2
Ntp127
Rp128
(dp129
g47
(F401.2499999999996
F62.12087230956588
tp130
sbag0
(g122
g2
Ntp131
Rp132
(dp133
g47
(F457.2499999999996
F62.12087230956588
tp134
sbag0
(g122
g2
Ntp135
Rp136
(dp137
g47
(F336.6
F-516.879110156174
tp138
sbag0
(g122
g2
Ntp139
Rp140
(dp141
g47
(F425.6
F-519.879110156174
tp142
sbag0
(g122
g2
Ntp143
Rp144
(dp145
g47
(F496.6
F-519.879110156174
tp146
sbag0
(g122
g2
Ntp147
Rp148
(dp149
g47
(F1746.062683000784
F-318.1245338647408
tp150
sbag0
(g122
g2
Ntp151
Rp152
(dp153
g47
(F1746.062683000784
F-288.1245338647408
tp154
sbag0
(g122
g2
Ntp155
Rp156
(dp157
g47
(F1746.062683000784
F-258.1245338647408
tp158
sbag0
(g122
g2
Ntp159
Rp160
(dp161
g47
(F1746.062683000784
F-233.1245338647408
tp162
sbag0
(g122
g2
Ntp163
Rp164
(dp165
g47
(F1746.062683000784
F-203.1245338647408
tp166
sbag0
(g122
g2
Ntp167
Rp168
(dp169
g47
(F1745.062683000784
F-176.1245338647408
tp170
sbag0
(g122
g2
Ntp171
Rp172
(dp173
g47
(F1745.062683000784
F-141.1245338647408
tp174
sbag0
(g122
g2
Ntp175
Rp176
(dp177
g47
(F1745.062683000784
F-106.12453386474081
tp178
sbasS'gvols'
p179
(lp180
g0
(cgravityvolume
GravityVolume
p181
g2
Ntp182
Rp183
(dp184
S'vertices'
p185
(lp186
(F843.8
F-139.87911002479757
tp187
a(F974.1384141159896
F100.02088997371226
tp188
a(F1201.1384141159897
F-16.979110026287742
tp189
a(F919.1384141159896
F-178.97911002628774
tp190
asS'g'
p191
(F-384.0000000000001
F-491.0
tp192
sbag0
(g181
g2
Ntp193
Rp194
(dp195
g185
(lp196
(F1212.1384141159897
F-386.97911002628774
tp197
a(F935.1384141159897
F-622.9791100262878
tp198
a(F856.1384141159896
F-358.97911002628774
tp199
a(F919.1384141159896
F-297.97911002628774
tp200
asg191
(F-465.0
F460.00000000000006
tp201
sbag0
(g181
g2
Ntp202
Rp203
(dp204
g185
(lp205
(F935.1384141159897
F-622.9791100262878
tp206
a(F-501.0
F-622.8791100239195
tp207
a(F-698.8615858840104
F-241.97911002628774
tp208
a(F818.0
F-246.87911002391945
tp209
asg191
(F0.0
F974.0
tp210
sbag0
(g181
g2
Ntp211
Rp212
(dp213
g185
(lp214
(F919.1384141159896
F-178.97911002628774
tp215
a(F1065.6
F-95.87911015617397
tp216
a(F1063.6
F-339.87911015617397
tp217
a(F919.1384141159896
F-297.97911002628774
tp218
asg191
(F-414.0
F-1.0
tp219
sbag0
(g181
g2
Ntp220
Rp221
(dp222
g185
(lp223
(F1065.6
F-95.87911015617397
tp224
a(F1063.6
F-339.87911015617397
tp225
a(F1804.0626830007839
F-339.1245338647408
tp226
a(F1804.0626830007839
F-69.12453386474081
tp227
asg191
(F789.0000000000002
F0.0
tp228
sbag0
(g181
g2
Ntp229
Rp230
(dp231
g185
(lp232
(F592.0
F-625.9708860097966
tp233
a(F935.1384141159897
F-622.9791100262878
tp234
a(F938.0
F-1230.9708860097967
tp235
a(F268.0
F-1230.9708860097967
tp236
asg191
(F0.0
F825.0
tp237
sbag0
(g181
g2
Ntp238
Rp239
(dp240
g185
(lp241
(F938.0
F-897.9708860097967
tp242
a(F939.0
F-1222.9708860097967
tp243
a(F2105.0
F-1222.9708860097967
tp244
a(F2110.0
F-902.9708860097967
tp245
asg191
(F-835.0
F0.0
tp246
sbasS'emitters'
p247
(lp248
g0
(cparticles
Emitter
p249
g2
Ntp250
Rp251
(dp252
g47
(F1086.062683000784
F-213.1245338647408
tp253
sS'counter'
p254
F0.01399999999999603
sbag0
(g249
g2
Ntp255
Rp256
(dp257
g47
(F2047.0
F-1056.9708860097967
tp258
sg254
F0.003999999999999726
sbasb.