ccopy_reg
_reconstructor
p0
(clevel
Level
p1
c__builtin__
object
p2
Ntp3
Rp4
(dp5
S'snaps'
p6
(dp7
(F284.73087109584458
F286.86110024094654
tp8
I1
s(F237.0
F275.78892133818169
tp9
I2
s(F-178.99000000000004
F149.27279658902981
tp10
I3
s(F-131.52648520116679
F156.68119423243337
tp11
I2
s(F693.0
F170.78892133818169
tp12
I1
s(F1018.7648350779363
F187.73682152694875
tp13
I2
s(F544.25003072704135
F280.9620280822362
tp14
I2
s(F699.0
F148.94525244243164
tp15
I1
s(F512.75442666191373
F278.55390278289661
tp16
I1
s(F866.75999999999999
F598.27279663979289
tp17
I2
s(F1221.5905111022803
F392.22066719035047
tp18
I4
s(F162.73087109584458
F652.8611002409466
tp19
I2
s(F513.75442666191373
F296.55390278289661
tp20
I1
s(F238.75442666191373
F356.55390278289661
tp21
I1
s(F699.00999999999999
F-70.727203410970191
tp22
I2
s(F544.64573650125669
F240.99787442460021
tp23
I1
s(F235.0
F173.78892133818169
tp24
I1
s(F325.73087109584458
F285.86110024094654
tp25
I1
s(F232.0
F11.945252442431652
tp26
I1
s(F912.59051110228029
F-62.779332809649532
tp27
I1
s(F1102.5905111022803
F137.22066719035047
tp28
I2
s(F127.0
F359.78892133818169
tp29
I2
s(F1035.7648350779364
F292.73682152694875
tp30
I1
s(F545.77329625763105
F267.21453937522739
tp31
I2
s(F232.0
F147.94525244243164
tp32
I1
s(F907.11419958885267
F-70.649156966880824
tp33
I2
s(F593.25003072704135
F280.9620280822362
tp34
I1
s(F1109.5905111022803
F335.22066719035047
tp35
I2
s(F-178.25
F-71.627203358716741
tp36
I2
s(F235.75
F-71.627203358716741
tp37
I2
s(F864.59051110228029
F48.220667190350468
tp38
I1
s(F837.89876037928912
F150.20482405378064
tp39
I2
s(F965.75999999999999
F519.27279663979289
tp40
I1
s(F996.75999999999999
F598.27279663979289
tp41
I3
s(F-178.0
F359.78892133818169
tp42
I2
s(F1220.5905111022803
F73.220667190350468
tp43
I4
s(F692.0
F261.78892133818169
tp44
I1
s(F697.0
F11.945252442431652
tp45
I1
ssS'goal'
p46
g0
(cportal
Portal
p47
g2
Ntp48
Rp49
(dp50
S'position'
p51
(F-25.0
F224.78892133818169
tp52
sbsS'gvols'
p53
(lp54
g0
(cgravityvolume
GravityVolume
p55
g2
Ntp56
Rp57
(dp58
S'vertices'
p59
(lp60
(F232.0
F147.94525244243164
tp61
a(F232.0
F11.945252442431652
tp62
a(F697.0
F11.945252442431652
tp63
a(F699.0
F148.94525244243164
tp64
asS'g'
p65
(F-1.0
F583.0
tp66
sbag0
(g55
g2
Ntp67
Rp68
(dp69
g59
(lp70
(F912.59051110228029
F-62.779332809649532
tp71
a(F864.59051110228029
F48.220667190350468
tp72
a(F1102.5905111022803
F137.22066719035047
tp73
a(F1220.5905111022803
F73.220667190350468
tp74
asg65
(F334.0
F-362.0
tp75
sbag0
(g55
g2
Ntp76
Rp77
(dp78
g59
(lp79
(F1220.5905111022803
F73.220667190350468
tp80
a(F1102.5905111022803
F137.22066719035047
tp81
a(F1109.5905111022803
F335.22066719035047
tp82
a(F1221.5905111022803
F392.22066719035047
tp83
asg65
(F626.0
F-11.0
tp84
sbag0
(g55
g2
Ntp85
Rp86
(dp87
g59
(lp88
(F1109.5905111022803
F335.22066719035047
tp89
a(F1221.5905111022803
F392.22066719035047
tp90
a(F996.75999999999999
F598.27279663979289
tp91
a(F965.75999999999999
F519.27279663979289
tp92
asg65
(F459.0
F426.99999999999994
tp93
sbag0
(g55
g2
Ntp94
Rp95
(dp96
g59
(lp97
(F237.0
F275.78892133818169
tp98
a(F235.0
F173.78892133818169
tp99
a(F693.0
F170.78892133818169
tp100
a(F692.0
F261.78892133818169
tp101
asg65
(F544.0
F-5.0
tp102
sbag0
(g55
g2
Ntp103
Rp104
(dp105
g59
(lp106
(F237.0
F275.78892133818169
tp107
a(F238.75442666191373
F356.55390278289661
tp108
a(F513.75442666191373
F296.55390278289661
tp109
a(F512.75442666191373
F278.55390278289661
tp110
asg65
(F644.0
F-47.0
tp111
sbasS'coins'
p112
(lp113
g0
(ccoin
Coin
p114
g2
Ntp115
Rp116
(dp117
g51
(F303.75738065865562
F-19.147309022630793
tp118
sbag0
(g114
g2
Ntp119
Rp120
(dp121
g51
(F446.75738065865562
F-20.147309022630793
tp122
sbag0
(g114
g2
Ntp123
Rp124
(dp125
g51
(F606.75738065865562
F-16.147309022630793
tp126
sbag0
(g114
g2
Ntp127
Rp128
(dp129
g51
(F951.56461862637354
F-18.832649427952465
tp130
sbag0
(g114
g2
Ntp131
Rp132
(dp133
g51
(F1112.5646186263734
F49.167350572047539
tp134
sbag0
(g114
g2
Ntp135
Rp136
(dp137
g51
(F1190.5646186263734
F128.16735057204755
tp138
sbag0
(g114
g2
Ntp139
Rp140
(dp141
g51
(F1192.5646186263734
F292.16735057204755
tp142
sbag0
(g114
g2
Ntp143
Rp144
(dp145
g51
(F1165.5646186263734
F406.16735057204755
tp146
sbag0
(g114
g2
Ntp147
Rp148
(dp149
g51
(F1006.5646186263734
F555.16735057204755
tp150
sbag0
(g114
g2
Ntp151
Rp152
(dp153
g51
(F275.56461862637343
F311.16735057204755
tp154
sbag0
(g114
g2
Ntp155
Rp156
(dp157
g51
(F294.56461862637343
F311.16735057204755
tp158
sbag0
(g114
g2
Ntp159
Rp160
(dp161
g51
(F314.56461862637343
F308.16735057204755
tp162
sbag0
(g114
g2
Ntp163
Rp164
(dp165
g51
(F303.30626547619687
F126.80122109442323
tp166
sbag0
(g114
g2
Ntp167
Rp168
(dp169
g51
(F459.30626547619687
F125.80122109442323
tp170
sbag0
(g114
g2
Ntp171
Rp172
(dp173
g51
(F643.30626547619681
F125.80122109442323
tp174
sbasS'lines'
p175
(lp176
g0
(clevel
Line
p177
g2
Ntp178
Rp179
(dp180
S'lethal'
p181
I00
sS'start'
p182
(F-178.25
F-71.627203358716741
tp183
sS'end'
p184
(F235.75
F-71.627203358716741
tp185
sbag0
(g177
g2
Ntp186
Rp187
(dp188
g181
I00
sg182
(F-178.25
F-71.627203358716741
tp189
sg184
(F-178.99000000000004
F149.27279658902981
tp190
sbag0
(g177
g2
Ntp191
Rp192
(dp193
g181
I01
sg182
(F235.75
F-71.627203358716741
tp194
sg184
(F699.00999999999999
F-70.727203410970191
tp195
sbag0
(g177
g2
Ntp196
Rp197
(dp198
g181
I00
sg182
(F699.00999999999999
F-70.727203410970191
tp199
sg184
(F907.11419958885267
F-70.649156966880824
tp200
sbag0
(g177
g2
Ntp201
Rp202
(dp203
g181
I00
sg182
(F907.11419958885267
F-70.649156966880824
tp204
sg184
(F1220.5905111022803
F73.220667190350468
tp205
sbag0
(g177
g2
Ntp206
Rp207
(dp208
g181
I00
sg182
(F1220.5905111022803
F73.220667190350468
tp209
sg184
(F1221.5905111022803
F392.22066719035047
tp210
sbag0
(g177
g2
Ntp211
Rp212
(dp213
g181
I00
sg182
(F-131.52648520116679
F156.68119423243337
tp214
sg184
(F-131.52648520116679
F156.68119423243337
tp215
sbag0
(g177
g2
Ntp216
Rp217
(dp218
g181
I00
sg182
(F-178.99000000000004
F149.27279658902981
tp219
sg184
(F837.89876037928912
F150.20482405378064
tp220
sbag0
(g177
g2
Ntp221
Rp222
(dp223
g181
I01
sg182
(F837.89876037928912
F150.20482405378064
tp224
sg184
(F1018.7648350779363
F187.73682152694875
tp225
sbag0
(g177
g2
Ntp226
Rp227
(dp228
g181
I01
sg182
(F1018.7648350779363
F187.73682152694875
tp229
sg184
(F1035.7648350779364
F292.73682152694875
tp230
sbag0
(g177
g2
Ntp231
Rp232
(dp233
g181
I00
sg182
(F1221.5905111022803
F392.22066719035047
tp234
sg184
(F996.75999999999999
F598.27279663979289
tp235
sbag0
(g177
g2
Ntp236
Rp237
(dp238
g181
I01
sg182
(F996.75999999999999
F598.27279663979289
tp239
sg184
(F866.75999999999999
F598.27279663979289
tp240
sbag0
(g177
g2
Ntp241
Rp242
(dp243
g181
I00
sg182
(F-178.99000000000004
F149.27279658902981
tp244
sg184
(F-178.0
F359.78892133818169
tp245
sbag0
(g177
g2
Ntp246
Rp247
(dp248
g181
I00
sg182
(F-178.0
F359.78892133818169
tp249
sg184
(F127.0
F359.78892133818169
tp250
sbag0
(g177
g2
Ntp251
Rp252
(dp253
g181
I00
sg182
(F544.25003072704135
F280.9620280822362
tp254
sg184
(F593.25003072704135
F280.9620280822362
tp255
sbag0
(g177
g2
Ntp256
Rp257
(dp258
g181
I00
sg182
(F284.73087109584458
F286.86110024094654
tp259
sg184
(F325.73087109584458
F285.86110024094654
tp260
sbag0
(g177
g2
Ntp261
Rp262
(dp263
g181
I00
sg182
(F127.0
F359.78892133818169
tp264
sg184
(F162.73087109584458
F652.8611002409466
tp265
sbag0
(g177
g2
Ntp266
Rp267
(dp268
g181
I00
sg182
(F162.73087109584458
F652.8611002409466
tp269
sg184
(F866.75999999999999
F598.27279663979289
tp270
sbag0
(g177
g2
Ntp271
Rp272
(dp273
g181
I00
sg182
(F544.25003072704135
F280.9620280822362
tp274
sg184
(F544.64573650125669
F240.99787442460021
tp275
sbag0
(g177
g2
Ntp276
Rp277
(dp278
g181
I00
sg182
(F545.77329625763105
F267.21453937522739
tp279
sg184
(F545.77329625763105
F267.21453937522739
tp280
sbasS'emitters'
p281
(lp282
g0
(cparticles
Emitter
p283
g2
Ntp284
Rp285
(dp286
S'position'
p287
(F468.15660497053091
F24.999188944213074
tp288
sS'counter'
p289
F0.032999999999963808
sbag0
(g283
g2
Ntp290
Rp291
(dp292
g287
(F1012.1566049705309
F84.999188944213074
tp293
sg289
F0.0099999999999633438
sbag0
(g283
g2
Ntp294
Rp295
(dp296
g287
(F1119.1566049705309
F224.99918894421307
tp297
sg289
F0.046999999999963016
sbag0
(g283
g2
Ntp298
Rp299
(dp300
S'position'
p301
(F291.25003072704135
F231.9620280822362
tp302
sS'counter'
p303
F0.043999999999987535
sbasb.