ccopy_reg
_reconstructor
p0
(clevel
Level
p1
c__builtin__
object
p2
Ntp3
Rp4
(dp5
S'snaps'
p6
(dp7
(F-190.0
F-184.5257
tp8
I2
s(F417.0
F-167.62600055549208
tp9
I1
s(F2062.0
F287.86896964793391
tp10
I1
s(F1952.0
F367.86896964793391
tp11
I1
s(F2405.0
F567.86896964793391
tp12
I1
s(F-190.0
F203.37399944450792
tp13
I2
s(F2544.0
F635.86896964793391
tp14
I3
s(F2270.0
F678.86896964793391
tp15
I1
s(F1790.0
F-184.13103035206609
tp16
I2
s(F211.0
F-184.5257
tp17
I3
s(F912.0
F-167.62600055549208
tp18
I1
s(F617.0
F12.373999444507916
tp19
I1
s(F196.0
F203.37399944450792
tp20
I3
s(F1450.0
F203.37399944450792
tp21
I4
s(F617.0
F173.37399944450792
tp22
I1
s(F1708.0
F210.86896964793391
tp23
I1
s(F1791.0
F-0.13103035206609093
tp24
I3
s(F912.0
F-4.6260005554920838
tp25
I1
s(F2010.0
F617.86896964793391
tp26
I1
s(F1597.0
F291.86896964793391
tp27
I1
s(F417.0
F-9.6260005554920838
tp28
I1
s(F2253.0
F884.86896964793391
tp29
I3
s(F2072.0
F563.86896964793391
tp30
I1
s(F1190.0
F-5.6260005554920838
tp31
I1
s(F1190.0
F171.37399944450792
tp32
I1
s(F1447.0
F-183.62600055549208
tp33
I3
ssS'goal'
p34
g0
(cportal
Portal
p35
g2
Ntp36
Rp37
(dp38
S'position'
p39
(F2204.0
F745.86896964793391
tp40
sbsS'gvols'
p41
(lp42
g0
(cgravityvolume
GravityVolume
p43
g2
Ntp44
Rp45
(dp46
S'vertices'
p47
(lp48
(F196.0
F203.37399944450792
tp49
a(F211.0
F-184.5257
tp50
a(F1447.0
F-183.62600055549208
tp51
a(F1450.0
F203.37399944450792
tp52
asS'g'
p53
(F775.0
F-25.0
tp54
sbag0
(g43
g2
Ntp55
Rp56
(dp57
g47
(lp58
(F1791.0
F-0.13103035206609093
tp59
a(F1450.0
F203.37399944450792
tp60
a(F2253.0
F884.86896964793391
tp61
a(F2544.0
F635.86896964793391
tp62
asg53
(F473.0
F409.0
tp63
sbasS'coins'
p64
(lp65
g0
(ccoin
Coin
p66
g2
Ntp67
Rp68
(dp69
g39
(F445.80571794605567
F-96.356431572440542
tp70
sbag0
(g66
g2
Ntp71
Rp72
(dp73
g39
(F638.93661563069577
F68.646750893661974
tp74
sbag0
(g66
g2
Ntp75
Rp76
(dp77
g39
(F929.82330311185251
F-65.905667129817786
tp78
sbag0
(g66
g2
Ntp79
Rp80
(dp81
g39
(F1620.4267820284158
F232.08781047949898
tp82
sbag0
(g66
g2
Ntp83
Rp84
(dp85
g39
(F1687.2745986018963
F274.34915587382676
tp86
sbag0
(g66
g2
Ntp87
Rp88
(dp89
g39
(F2018.5154950563278
F346.62096588772124
tp90
sbag0
(g66
g2
Ntp91
Rp92
(dp93
g39
(F375.0
F-85.192597501161799
tp94
sbag0
(g66
g2
Ntp95
Rp96
(dp97
g39
(F573.0
F69.807402498838201
tp98
sbag0
(g66
g2
Ntp99
Rp100
(dp101
g39
(F864.0
F-71.192597501161799
tp102
sbag0
(g66
g2
Ntp103
Rp104
(dp105
g39
(F1136.0
F65.807402498838201
tp106
sbag0
(g66
g2
Ntp107
Rp108
(dp109
g39
(F1985.0
F301.8074024988382
tp110
sbag0
(g66
g2
Ntp111
Rp112
(dp113
g39
(F2022.0
F572.8074024988382
tp114
sbag0
(g66
g2
Ntp115
Rp116
(dp117
g39
(F2059.0
F611.8074024988382
tp118
sbag0
(g66
g2
Ntp119
Rp120
(dp121
g39
(F2303.0
F609.8074024988382
tp122
sbasS'lines'
p123
(lp124
g0
(clevel
Line
p125
g2
Ntp126
Rp127
(dp128
S'lethal'
p129
I00
sS'start'
p130
(F-190.0
F-184.5257
tp131
sS'end'
p132
(F211.0
F-184.5257
tp133
sbag0
(g125
g2
Ntp134
Rp135
(dp136
g129
I00
sg130
(F-190.0
F-184.5257
tp137
sg132
(F-190.0
F203.37399944450792
tp138
sbag0
(g125
g2
Ntp139
Rp140
(dp141
g129
I00
sg130
(F-190.0
F203.37399944450792
tp142
sg132
(F196.0
F203.37399944450792
tp143
sbag0
(g125
g2
Ntp144
Rp145
(dp146
g129
I01
sg130
(F196.0
F203.37399944450792
tp147
sg132
(F1450.0
F203.37399944450792
tp148
sbag0
(g125
g2
Ntp149
Rp150
(dp151
g129
I00
sg130
(F417.0
F-9.6260005554920838
tp152
sg132
(F417.0
F-167.62600055549208
tp153
sbag0
(g125
g2
Ntp154
Rp155
(dp156
g129
I00
sg130
(F617.0
F173.37399944450792
tp157
sg132
(F617.0
F12.373999444507916
tp158
sbag0
(g125
g2
Ntp159
Rp160
(dp161
g129
I00
sg130
(F912.0
F-4.6260005554920838
tp162
sg132
(F912.0
F-167.62600055549208
tp163
sbag0
(g125
g2
Ntp164
Rp165
(dp166
g129
I00
sg130
(F1190.0
F171.37399944450792
tp167
sg132
(F1190.0
F-5.6260005554920838
tp168
sbag0
(g125
g2
Ntp169
Rp170
(dp171
g129
I01
sg130
(F211.0
F-184.5257
tp172
sg132
(F1447.0
F-183.62600055549208
tp173
sbag0
(g125
g2
Ntp174
Rp175
(dp176
g129
I00
sg130
(F1447.0
F-183.62600055549208
tp177
sg132
(F1790.0
F-184.13103035206609
tp178
sbag0
(g125
g2
Ntp179
Rp180
(dp181
g129
I00
sg130
(F1790.0
F-184.13103035206609
tp182
sg132
(F1791.0
F-0.13103035206609093
tp183
sbag0
(g125
g2
Ntp184
Rp185
(dp186
g129
I01
sg130
(F1450.0
F203.37399944450792
tp187
sg132
(F2253.0
F884.86896964793391
tp188
sbag0
(g125
g2
Ntp189
Rp190
(dp191
g129
I01
sg130
(F1791.0
F-0.13103035206609093
tp192
sg132
(F2544.0
F635.86896964793391
tp193
sbag0
(g125
g2
Ntp194
Rp195
(dp196
g129
I01
sg130
(F2544.0
F635.86896964793391
tp197
sg132
(F2253.0
F884.86896964793391
tp198
sbag0
(g125
g2
Ntp199
Rp200
(dp201
g129
I00
sg130
(F1597.0
F291.86896964793391
tp202
sg132
(F1708.0
F210.86896964793391
tp203
sbag0
(g125
g2
Ntp204
Rp205
(dp206
g129
I00
sg130
(F2062.0
F287.86896964793391
tp207
sg132
(F1952.0
F367.86896964793391
tp208
sbag0
(g125
g2
Ntp209
Rp210
(dp211
g129
I00
sg130
(F2010.0
F617.86896964793391
tp212
sg132
(F2072.0
F563.86896964793391
tp213
sbag0
(g125
g2
Ntp214
Rp215
(dp216
g129
I00
sg130
(F2405.0
F567.86896964793391
tp217
sg132
(F2270.0
F678.86896964793391
tp218
sbasS'emitters'
p219
(lp220
g0
(cparticles
Emitter
p221
g2
Ntp222
Rp223
(dp224
S'position'
p225
(F257.0
F22.373999444507916
tp226
sS'counter'
p227
F0.019999999999993689
sbag0
(g221
g2
Ntp228
Rp229
(dp230
S'position'
p231
(F1627.0
F122.86896964793391
tp232
sS'counter'
p233
F0.047999999999998599
sbasb.