ccopy_reg
_reconstructor
p0
(clevel
Level
p1
c__builtin__
object
p2
Ntp3
Rp4
(dp5
S'snaps'
p6
(dp7
(F1154.0
F282.6352
tp8
I4
s(F829.0
F-103.3648
tp9
I2
s(F774.0
F464.6352
tp10
I2
s(F829.0
F-278.3648
tp11
I2
s(F-175.0
F437.6352
tp12
I3
s(F384.0
F-278.3648
tp13
I2
s(F384.0
F-90.3648
tp14
I2
s(F-175.0
F-90.3648
tp15
I4
s(F384.0
F5.6351999999999975
tp16
I1
s(F-174.0
F262.63519999999994
tp17
I1
s(F207.0
F464.6352
tp18
I4
s(F185.0
F585.6351999999999
tp19
I4
s(F802.0
F6.6351999999999975
tp20
I1
s(F803.0
F120.6352
tp21
I2
s(F1154.0
F-103.3648
tp22
I3
s(F898.0
F585.6351999999999
tp23
I4
s(F984.0
F239.6352
tp24
I2
s(F384.0
F120.6352
tp25
I2
s(F982.0
F-103.3648
tp26
I1
ssS'goal'
p27
g0
(cportal
Portal
p28
g2
Ntp29
Rp30
(dp31
S'position'
p32
(F967.0
F397.6352
tp33
sbsS'lines'
p34
(lp35
g0
(clevel
Line
p36
g2
Ntp37
Rp38
(dp39
S'lethal'
p40
I00
sS'start'
p41
(F-175.0
F-90.3648
tp42
sS'end'
p43
(F-175.0
F-90.3648
tp44
sbag0
(g36
g2
Ntp45
Rp46
(dp47
g40
I00
sg41
(F-175.0
F-90.3648
tp48
sg43
(F384.0
F-90.3648
tp49
sbag0
(g36
g2
Ntp50
Rp51
(dp52
g40
I00
sg41
(F-175.0
F-90.3648
tp53
sg43
(F-175.0
F437.6352
tp54
sbag0
(g36
g2
Ntp55
Rp56
(dp57
g40
I00
sg41
(F384.0
F-90.3648
tp58
sg43
(F384.0
F-278.3648
tp59
sbag0
(g36
g2
Ntp60
Rp61
(dp62
g40
I01
sg41
(F384.0
F-278.3648
tp63
sg43
(F829.0
F-278.3648
tp64
sbag0
(g36
g2
Ntp65
Rp66
(dp67
g40
I00
sg41
(F829.0
F-278.3648
tp68
sg43
(F829.0
F-103.3648
tp69
sbag0
(g36
g2
Ntp70
Rp71
(dp72
g40
I00
sg41
(F829.0
F-103.3648
tp73
sg43
(F1154.0
F-103.3648
tp74
sbag0
(g36
g2
Ntp75
Rp76
(dp77
g40
I00
sg41
(F384.0
F120.6352
tp78
sg43
(F803.0
F120.6352
tp79
sbag0
(g36
g2
Ntp80
Rp81
(dp82
g40
I00
sg41
(F1154.0
F-103.3648
tp83
sg43
(F1154.0
F282.6352
tp84
sbag0
(g36
g2
Ntp85
Rp86
(dp87
g40
I00
sg41
(F1154.0
F282.6352
tp88
sg43
(F898.0
F585.6351999999999
tp89
sbag0
(g36
g2
Ntp90
Rp91
(dp92
g40
I00
sg41
(F898.0
F585.6351999999999
tp93
sg43
(F185.0
F585.6351999999999
tp94
sbag0
(g36
g2
Ntp95
Rp96
(dp97
g40
I01
sg41
(F185.0
F585.6351999999999
tp98
sg43
(F-175.0
F437.6352
tp99
sbag0
(g36
g2
Ntp100
Rp101
(dp102
g40
I00
sg41
(F207.0
F464.6352
tp103
sg43
(F207.0
F464.6352
tp104
sbasS'coins'
p105
(lp106
g0
(ccoin
Coin
p107
g2
Ntp108
Rp109
(dp110
g32
(F757.6687845703954
F60.53519999526532
tp111
sbag0
(g107
g2
Ntp112
Rp113
(dp114
g32
(F642.6687845703954
F60.53519999526532
tp115
sbag0
(g107
g2
Ntp116
Rp117
(dp118
g32
(F517.6687845703954
F60.53519999526532
tp119
sbag0
(g107
g2
Ntp120
Rp121
(dp122
g32
(F407.66878457039536
F60.53519999526532
tp123
sbag0
(g107
g2
Ntp124
Rp125
(dp126
g32
(F1070.6698396153777
F-53.46496003622304
tp127
sbag0
(g107
g2
Ntp128
Rp129
(dp130
g32
(F1069.6698396153777
F21.53503996377696
tp131
sbag0
(g107
g2
Ntp132
Rp133
(dp134
g32
(F1069.6698396153777
F86.53503996377697
tp135
sbag0
(g107
g2
Ntp136
Rp137
(dp138
g32
(F1069.6698396153777
F151.53503996377697
tp139
sbag0
(g107
g2
Ntp140
Rp141
(dp142
g32
(F1069.6698396153777
F196.53503996377697
tp143
sbag0
(g107
g2
Ntp144
Rp145
(dp146
g32
(F1024.6698396153777
F311.53503996377697
tp147
sbag0
(g107
g2
Ntp148
Rp149
(dp150
g32
(F1058.6698396153777
F257.53503996377697
tp151
sbasS'gvols'
p152
(lp153
g0
(cgravityvolume
GravityVolume
p154
g2
Ntp155
Rp156
(dp157
S'vertices'
p158
(lp159
(F384.0
F120.6352
tp160
a(F384.0
F5.6351999999999975
tp161
a(F802.0
F6.6351999999999975
tp162
a(F803.0
F120.6352
tp163
asS'g'
p164
(F0.0
F332.0
tp165
sbag0
(g154
g2
Ntp166
Rp167
(dp168
g158
(lp169
(F1154.0
F-103.3648
tp170
a(F982.0
F-103.3648
tp171
a(F984.0
F239.6352
tp172
a(F1154.0
F282.6352
tp173
asg164
(F523.0
F0.0
tp174
sbag0
(g154
g2
Ntp175
Rp176
(dp177
g158
(lp178
(F984.0
F239.6352
tp179
a(F774.0
F464.6352
tp180
a(F898.0
F585.6351999999999
tp181
a(F1154.0
F282.6352
tp182
asg164
(F440.0
F309.99999999999994
tp183
sbag0
(g154
g2
Ntp184
Rp185
(dp186
g158
(lp187
(F774.0
F464.6352
tp188
a(F207.0
F464.6352
tp189
a(F185.0
F585.6351999999999
tp190
a(F898.0
F585.6351999999999
tp191
asg164
(F0.0
F223.99999999999994
tp192
sbag0
(g154
g2
Ntp193
Rp194
(dp195
g158
(lp196
(F207.0
F464.6352
tp197
a(F-174.0
F262.63519999999994
tp198
a(F-175.0
F437.6352
tp199
a(F185.0
F585.6351999999999
tp200
asg164
(F343.0
F-582.0
tp201
sbasS'emitters'
p202
(lp203
g0
(cparticles
Emitter
p204
g2
Ntp205
Rp206
(dp207
g32
(F603.0
F119.6352
tp208
sS'counter'
p209
F0.02300000000007177
sS'period'
p210
F0.01
sbasb.