ccopy_reg
_reconstructor
p0
(clevel
Level
p1
c__builtin__
object
p2
Ntp3
Rp4
(dp5
S'snaps'
p6
(dp7
(F-215.0
F346.98789999999997
tp8
I4
s(F-134.0
F552.9879
tp9
I6
s(F1205.4017494791924
F119.26725981207937
tp10
I3
s(F827.3727432816411
F559.5762167935515
tp11
I4
s(F1537.4335298460974
F-85.9147821821955
tp12
I2
s(F1649.3857818569804
F437.447552268869
tp13
I1
s(F124.0
F360.98789999999997
tp14
I4
s(F1837.696505
F-85.19629199999969
tp15
I2
s(F-127.0
F346.98789999999997
tp16
I2
s(F1061.4017494791924
F226.26725981207937
tp17
I4
s(F825.3871834505369
F365.01381044568404
tp18
I5
s(F1148.4017494791924
F-86.73274018792063
tp19
I3
s(F-129.0
F-127.01210000000003
tp20
I1
s(F1061.4017494791924
F464.2672598120794
tp21
I4
s(F2174.532799427049
F363.71227121101833
tp22
I4
s(F824.4017494791924
F220.26725981207937
tp23
I4
s(F-215.0
F-125.0121
tp24
I3
s(F1829.532799427049
F121.71227121101836
tp25
I5
s(F2301.696505
F147.8037080000003
tp26
I2
s(F-127.0
F-116.01210000000003
tp27
I1
s(F-215.62725671835892
F551.5762167935515
tp28
I2
s(F1468.4335298460974
F120.0852178178045
tp29
I2
s(F1467.532799427049
F-81.28772878898164
tp30
I1
s(F2146.3857818569804
F383.447552268869
tp31
I2
s(F-210.62725671835892
F547.5762167935515
tp32
I1
s(F118.0
F556.9879
tp33
I4
s(F1829.532799427049
F-81.28772878898164
tp34
I2
s(F237.0
F-125.0121
tp35
I2
s(F240.0
F-129.0121
tp36
I1
s(F2297.532799427049
F151.71227121101833
tp37
I1
s(F127.0
F-126.01210000000003
tp38
I1
s(F240.0
F362.98789999999997
tp39
I3
s(F601.3727432816411
F363.57621679355145
tp40
I2
s(F126.0
F-120.01210000000003
tp41
I1
s(F2038.3857818569804
F595.447552268869
tp42
I2
ssS'goal'
p43
g0
(cportal
Portal
p44
g2
Ntp45
Rp46
(dp47
S'position'
p48
(F1977.125383336132
F530.6519061150499
tp49
sbsS'lines'
p50
(lp51
g0
(clevel
Line
p52
g2
Ntp53
Rp54
(dp55
S'lethal'
p56
I01
sS'start'
p57
(F240.0
F-129.0121
tp58
sS'end'
p59
(F240.0
F362.98789999999997
tp60
sbag0
(g52
g2
Ntp61
Rp62
(dp63
g56
I01
sg57
(F237.0
F-125.0121
tp64
sg59
(F-215.0
F-125.0121
tp65
sbag0
(g52
g2
Ntp66
Rp67
(dp68
g56
I01
sg57
(F-215.0
F-125.0121
tp69
sg59
(F-215.0
F346.98789999999997
tp70
sbag0
(g52
g2
Ntp71
Rp72
(dp73
g56
I00
sg57
(F-134.0
F552.9879
tp74
sg59
(F-134.0
F552.9879
tp75
sbag0
(g52
g2
Ntp76
Rp77
(dp78
g56
I00
sg57
(F-134.0
F552.9879
tp79
sg59
(F118.0
F556.9879
tp80
sbag0
(g52
g2
Ntp81
Rp82
(dp83
g56
I01
sg57
(F240.0
F362.98789999999997
tp84
sg59
(F601.3727432816411
F363.57621679355145
tp85
sbag0
(g52
g2
Ntp86
Rp87
(dp88
g56
I01
sg57
(F-215.0
F346.98789999999997
tp89
sg59
(F-215.62725671835892
F551.5762167935515
tp90
sbag0
(g52
g2
Ntp91
Rp92
(dp93
g56
I00
sg57
(F-215.62725671835892
F551.5762167935515
tp94
sg59
(F-134.0
F552.9879
tp95
sbag0
(g52
g2
Ntp96
Rp97
(dp98
g56
I00
sg57
(F124.0
F360.98789999999997
tp99
sg59
(F124.0
F360.98789999999997
tp100
sbag0
(g52
g2
Ntp101
Rp102
(dp103
g56
I00
sg57
(F118.0
F556.9879
tp104
sg59
(F827.3727432816411
F559.5762167935515
tp105
sbag0
(g52
g2
Ntp106
Rp107
(dp108
g56
I00
sg57
(F827.3727432816411
F559.5762167935515
tp109
sg59
(F1061.4017494791924
F464.2672598120794
tp110
sbag0
(g52
g2
Ntp111
Rp112
(dp113
g56
I00
sg57
(F1061.4017494791924
F464.2672598120794
tp114
sg59
(F1061.4017494791924
F226.26725981207937
tp115
sbag0
(g52
g2
Ntp116
Rp117
(dp118
g56
I00
sg57
(F1061.4017494791924
F226.26725981207937
tp119
sg59
(F1205.4017494791924
F119.26725981207937
tp120
sbag0
(g52
g2
Ntp121
Rp122
(dp123
g56
I01
sg57
(F601.3727432816411
F363.57621679355145
tp124
sg59
(F825.3871834505369
F365.01381044568404
tp125
sbag0
(g52
g2
Ntp126
Rp127
(dp128
g56
I01
sg57
(F825.3871834505369
F365.01381044568404
tp129
sg59
(F824.4017494791924
F220.26725981207937
tp130
sbag0
(g52
g2
Ntp131
Rp132
(dp133
g56
I01
sg57
(F824.4017494791924
F220.26725981207937
tp134
sg59
(F1148.4017494791924
F-86.73274018792063
tp135
sbag0
(g52
g2
Ntp136
Rp137
(dp138
g56
I01
sg57
(F1205.4017494791924
F119.26725981207937
tp139
sg59
(F1468.4335298460974
F120.0852178178045
tp140
sbag0
(g52
g2
Ntp141
Rp142
(dp143
g56
I00
sg57
(F1148.4017494791924
F-86.73274018792063
tp144
sg59
(F1537.4335298460974
F-85.9147821821955
tp145
sbag0
(g52
g2
Ntp146
Rp147
(dp148
g56
I00
sg57
(F1829.532799427049
F121.71227121101836
tp149
sg59
(F1829.532799427049
F121.71227121101836
tp150
sbag0
(g52
g2
Ntp151
Rp152
(dp153
g56
I01
sg57
(F1537.4335298460974
F-85.9147821821955
tp154
sg59
(F1837.696505
F-85.19629199999969
tp155
sbag0
(g52
g2
Ntp156
Rp157
(dp158
g56
I01
sg57
(F1837.696505
F-85.19629199999969
tp159
sg59
(F2301.696505
F147.8037080000003
tp160
sbag0
(g52
g2
Ntp161
Rp162
(dp163
g56
I00
sg57
(F2174.532799427049
F363.71227121101833
tp164
sg59
(F2301.696505
F147.8037080000003
tp165
sbag0
(g52
g2
Ntp166
Rp167
(dp168
g56
I00
sg57
(F2146.3857818569804
F383.447552268869
tp169
sg59
(F2146.3857818569804
F383.447552268869
tp170
sbag0
(g52
g2
Ntp171
Rp172
(dp173
g56
I00
sg57
(F2174.532799427049
F363.71227121101833
tp174
sg59
(F2038.3857818569804
F595.447552268869
tp175
sbasS'coins'
p176
(lp177
g0
(ccoin
Coin
p178
g2
Ntp179
Rp180
(dp181
g48
(F1.4424854780878684
F125.0887303842029
tp182
sbag0
(g178
g2
Ntp183
Rp184
(dp185
g48
(F1.4424854780878684
F217.0887303842029
tp186
sbag0
(g178
g2
Ntp187
Rp188
(dp189
g48
(F1.4424854780878684
F312.0887303842029
tp190
sbag0
(g178
g2
Ntp191
Rp192
(dp193
g48
(F1.4424854780878684
F392.0887303842029
tp194
sbag0
(g178
g2
Ntp195
Rp196
(dp197
g48
(F380.44248547808786
F466.0887303842029
tp198
sbag0
(g178
g2
Ntp199
Rp200
(dp201
g48
(F495.44248547808786
F466.0887303842029
tp202
sbag0
(g178
g2
Ntp203
Rp204
(dp205
g48
(F617.4424854780879
F466.0887303842029
tp206
sbag0
(g178
g2
Ntp207
Rp208
(dp209
g48
(F750.4424854780879
F467.0887303842029
tp210
sbag0
(g178
g2
Ntp211
Rp212
(dp213
g48
(F884.4424854780879
F443.0887303842029
tp214
sbag0
(g178
g2
Ntp215
Rp216
(dp217
g48
(F955.4424854780877
F336.0887303842029
tp218
sbag0
(g178
g2
Ntp219
Rp220
(dp221
g48
(F958.4424854780877
F274.0887303842029
tp222
sbag0
(g178
g2
Ntp223
Rp224
(dp225
g48
(F1041.4424854780877
F160.0887303842029
tp226
sbag0
(g178
g2
Ntp227
Rp228
(dp229
g48
(F1083.4424854780877
F119.0887303842029
tp230
sbag0
(g178
g2
Ntp231
Rp232
(dp233
g48
(F1225.4424854780877
F11.088730384202904
tp234
sbag0
(g178
g2
Ntp235
Rp236
(dp237
g48
(F1321.4424854780877
F14.088730384202904
tp238
sbag0
(g178
g2
Ntp239
Rp240
(dp241
g48
(F1598.4424854780877
F4.088730384202904
tp242
sbag0
(g178
g2
Ntp243
Rp244
(dp245
g48
(F1702.4424854780877
F8.088730384202904
tp246
sbag0
(g178
g2
Ntp247
Rp248
(dp249
g48
(F1895.4424854780877
F53.088730384202904
tp250
sbag0
(g178
g2
Ntp251
Rp252
(dp253
g48
(F1971.4424854780877
F90.0887303842029
tp254
sbag0
(g178
g2
Ntp255
Rp256
(dp257
g48
(F2052.4424854780877
F126.0887303842029
tp258
sbag0
(g178
g2
Ntp259
Rp260
(dp261
g48
(F2126.4424854780877
F170.0887303842029
tp262
sbag0
(g178
g2
Ntp263
Rp264
(dp265
g48
(F2211.4424854780877
F216.0887303842029
tp266
sbasS'gvols'
p267
(lp268
g0
(cgravityvolume
GravityVolume
p269
g2
Ntp270
Rp271
(dp272
S'vertices'
p273
(lp274
(F-215.0
F346.98789999999997
tp275
a(F-127.0
F346.98789999999997
tp276
a(F-127.0
F-116.01210000000003
tp277
a(F-215.0
F-125.0121
tp278
asS'g'
p279
(F-877.0
F0.0
tp280
sbag0
(g269
g2
Ntp281
Rp282
(dp283
g273
(lp284
(F240.0
F362.98789999999997
tp285
a(F124.0
F360.98789999999997
tp286
a(F126.0
F-120.01210000000003
tp287
a(F237.0
F-125.0121
tp288
asg279
(F1039.0
F19.0
tp289
sbag0
(g269
g2
Ntp290
Rp291
(dp292
g273
(lp293
(F-129.0
F-127.01210000000003
tp294
a(F127.0
F-126.01210000000003
tp295
a(F118.0
F556.9879
tp296
a(F-134.0
F552.9879
tp297
asg279
(F-5.0
F692.0
tp298
sbag0
(g269
g2
Ntp299
Rp300
(dp301
g273
(lp302
(F-127.0
F346.98789999999997
tp303
a(F-134.0
F552.9879
tp304
a(F-210.62725671835892
F547.5762167935515
tp305
a(F-215.0
F346.98789999999997
tp306
asg279
(F2.0
F628.0
tp307
sbag0
(g269
g2
Ntp308
Rp309
(dp310
g273
(lp311
(F124.0
F360.98789999999997
tp312
a(F118.0
F556.9879
tp313
a(F827.3727432816411
F559.5762167935515
tp314
a(F825.3871834505369
F365.01381044568404
tp315
asg279
(F-1.0
F552.0000000000001
tp316
sbag0
(g269
g2
Ntp317
Rp318
(dp319
g273
(lp320
(F827.3727432816411
F559.5762167935515
tp321
a(F825.3871834505369
F365.01381044568404
tp322
a(F1061.4017494791924
F464.2672598120794
tp323
asg279
(F351.0
F551.0
tp324
sbag0
(g269
g2
Ntp325
Rp326
(dp327
g273
(lp328
(F825.3871834505369
F365.01381044568404
tp329
a(F824.4017494791924
F220.26725981207937
tp330
a(F1061.4017494791924
F226.26725981207937
tp331
a(F1061.4017494791924
F464.2672598120794
tp332
asg279
(F897.0
F17.0
tp333
sbag0
(g269
g2
Ntp334
Rp335
(dp336
g273
(lp337
(F824.4017494791924
F220.26725981207937
tp338
a(F1148.4017494791924
F-86.73274018792063
tp339
a(F1205.4017494791924
F119.26725981207937
tp340
a(F1061.4017494791924
F226.26725981207937
tp341
asg279
(F799.0
F603.0
tp342
sbag0
(g269
g2
Ntp343
Rp344
(dp345
g273
(lp346
(F1468.4335298460974
F120.0852178178045
tp347
a(F1467.532799427049
F-81.28772878898164
tp348
a(F1829.532799427049
F-81.28772878898164
tp349
a(F1829.532799427049
F121.71227121101836
tp350
asg279
(F751.0000000000002
F1.0
tp351
sbag0
(g269
g2
Ntp352
Rp353
(dp354
g273
(lp355
(F1829.532799427049
F121.71227121101836
tp356
a(F2174.532799427049
F363.71227121101833
tp357
a(F2297.532799427049
F151.71227121101833
tp358
a(F1829.532799427049
F-81.28772878898164
tp359
asg279
(F651.0
F378.0
tp360
sbag0
(g269
g2
Ntp361
Rp362
(dp363
g273
(lp364
(F1829.532799427049
F121.71227121101836
tp365
a(F1649.3857818569804
F437.447552268869
tp366
a(F2038.3857818569804
F595.447552268869
tp367
a(F2174.532799427049
F363.71227121101833
tp368
asg279
(F884.0
F511.0
tp369
sbasS'emitters'
p370
(lp371
g0
(cparticles
Emitter
p372
g2
Ntp373
Rp374
(dp375
g48
(F1492.5327994270492
F15.712271211018333
tp376
sS'counter'
p377
F0.036999999999993274
sbasb.