ccopy_reg
_reconstructor
p0
(clevel
Level
p1
c__builtin__
object
p2
Ntp3
Rp4
(dp5
S'gvols'
p6
(lp7
g0
(cgravityvolume
GravityVolume
p8
g2
Ntp9
Rp10
(dp11
S'vertices'
p12
(lp13
(F207.0
F-177.0302008166675
tp14
a(F110.0
F-167.0302008166675
tp15
a(F118.0
F666.9697991833325
tp16
a(F207.0
F659.9697991833325
tp17
asS'g'
p18
(F0.0
F1532.0
tp19
sbag0
(g8
g2
Ntp20
Rp21
(dp22
g12
(lp23
(F205.00766070939403
F2158.3302410857368
tp24
a(F204.00766070939403
F2135.3302410857368
tp25
a(F1400.007660709394
F2131.3302410857368
tp26
a(F1398.007660709394
F2145.3302410857368
tp27
asg18
(F0.0
F2509.0
tp28
sbag0
(g8
g2
Ntp29
Rp30
(dp31
g12
(lp32
(F290.0
F1541.0
tp33
a(F1124.0
F1541.0
tp34
a(F1151.0
F1704.0
tp35
a(F282.0
F1728.0
tp36
asg18
(F1881.0
F-4.0
tp37
sbag0
(g8
g2
Ntp38
Rp39
(dp40
g12
(lp41
(F2138.0670814249456
F2138.1008882567467
tp42
a(F2003.0670814249456
F-372.89911174325334
tp43
a(F1981.0670814249456
F-349.89911174325334
tp44
a(F2118.0
F2144.9695037016081
tp45
asg18
(F1326.0
F-5.0
tp46
sbag0
(g8
g2
Ntp47
Rp48
(dp49
g12
(lp50
(F1688.5981118034408
F-258.31509937121336
tp51
a(F1841.5981118034408
F-284.31509937121336
tp52
a(F1845.5981118034408
F-326.31509937121336
tp53
a(F1686.8941085796644
F-299.52445895304845
tp54
asg18
(F-2500.0
F301.0
tp55
sbag0
(g8
g2
Ntp56
Rp57
(dp58
g12
(lp59
(F1647.0208820974003
F3.1633374213200796
tp60
a(F993.02088209740032
F10.16333742132008
tp61
a(F973.02088209740032
F-368.83666257867992
tp62
a(F1636.0208820974003
F-371.83666257867992
tp63
asg18
(F4.0
F-2594.0
tp64
sbag0
(g8
g2
Ntp65
Rp66
(dp67
g12
(lp68
(F950.62842354177633
F1195.2982645259808
tp69
a(F997.62842354177633
F1195.2982645259808
tp70
a(F994.62842354177633
F843.29826452598081
tp71
a(F946.62842354177633
F833.29826452598081
tp72
asg18
(F-1994.0
F11.0
tp73
sbag0
(g8
g2
Ntp74
Rp75
(dp76
g12
(lp77
(F1574.4649849043431
F2143.1936635019033
tp78
a(F1687.4649849043431
F1869.1936635019033
tp79
a(F2121.4649849043431
F1868.1936635019033
tp80
a(F2133.4649849043431
F2142.1936635019033
tp81
asg18
(F0.0
F-18.0
tp82
sbag0
(g8
g2
Ntp83
Rp84
(dp85
g12
(lp86
(F1146.6335306257579
F1125.2186730166272
tp87
a(F1103.6335306257579
F369.21867301662724
tp88
a(F1594.6335306257579
F447.21867301662724
tp89
a(F1362.6335306257579
F996.21867301662724
tp90
asg18
(F-3496.0
F3263.0
tp91
sbag0
(g8
g2
Ntp92
Rp93
(dp94
g12
(lp95
(F951.01198959649628
F758.19585052347293
tp96
a(F949.01198959649628
F798.19585052347293
tp97
a(F1032.0119895964963
F733.19585052347293
tp98
a(F1009.0119895964963
F716.19585052347293
tp99
asg18
(F-624.0
F-466.0
tp100
sbag0
(g8
g2
Ntp101
Rp102
(dp103
g12
(lp104
(F1032.0119895964963
F733.19585052347293
tp105
a(F1009.0119895964963
F716.19585052347293
tp106
a(F946.04264590154332
F568.38970554360446
tp107
a(F993.01198959649628
F560.19585052347293
tp108
asg18
(F-648.0
F457.0
tp109
sbag0
(g8
g2
Ntp110
Rp111
(dp112
g12
(lp113
(F322.0078517287659
F709.36388978204388
tp114
a(F331.0078517287659
F674.36388978204388
tp115
a(F502.0078517287659
F624.36388978204388
tp116
a(F506.0078517287659
F655.36388978204388
tp117
asg18
(F170.0
F503.99999999999989
tp118
sbag0
(g8
g2
Ntp119
Rp120
(dp121
g12
(lp122
(F296.0078517287659
F677.36388978204388
tp123
a(F331.0078517287659
F674.36388978204388
tp124
a(F517.01724356333375
F81.311279484894385
tp125
a(F498.01724356333375
F33.311279484894385
tp126
asg18
(F-1002.0
F-953.0
tp127
sbag0
(g8
g2
Ntp128
Rp129
(dp130
g12
(lp131
(F778.13599522331833
F668.79133341657689
tp132
a(F939.13599522331833
F668.79133341657689
tp133
a(F920.13599522331833
F386.79133341657689
tp134
a(F735.13599522331833
F385.79133341657689
tp135
asg18
(F-1327.0
F-90.0
tp136
sbag0
(g8
g2
Ntp137
Rp138
(dp139
g12
(lp140
(F729.51486521641993
F367.93572485827485
tp141
a(F556.51486521641993
F118.93572485827485
tp142
a(F744.51486521641993
F64.935724858274853
tp143
a(F931.51486521641993
F371.93572485827485
tp144
asg18
(F-1749.0
F1711.0
tp145
sbag0
(g8
g2
Ntp146
Rp147
(dp148
g12
(lp149
(F502.0078517287659
F624.36388978204388
tp150
a(F506.0078517287659
F655.36388978204388
tp151
a(F611.0078517287659
F653.36388978204388
tp152
a(F633.62464879229583
F627.93677357485399
tp153
asg18
(F-225.0
F1228.0
tp154
sbag0
(g8
g2
Ntp155
Rp156
(dp157
g12
(lp158
(F606.62464879229583
F657.93677357485399
tp159
a(F633.62464879229583
F627.93677357485399
tp160
a(F632.62464879229583
F724.93677357485399
tp161
a(F609.89410857966436
F690.47554104695155
tp162
asg18
(F-1089.0
F35.0
tp163
sbasS'snaps'
p164
(dp165
(F2133.4649849043431
F2142.1936635019033
tp166
I1
s(F1009.0119895964963
F716.19585052347293
tp167
I4
s(F729.51486521641993
F367.93572485827485
tp168
I1
s(F939.13599522331833
F668.79133341657689
tp169
I1
s(F993.01198959649628
F560.19585052347293
tp170
I1
s(F110.0
F-167.0302008166675
tp171
I1
s(F1144.6335306257579
F1148.2186730166272
tp172
I3
s(F606.62464879229583
F657.93677357485399
tp173
I1
s(F540.89410857966436
F693.47554104695155
tp174
I1
s(F2003.8941085796644
F-359.52445895304845
tp175
I1
s(F65.109999999999985
F-20.030824216409087
tp176
I1
s(F611.0078517287659
F653.36388978204388
tp177
I5
s(F290.0
F1541.0
tp178
I1
s(F977.04265714138114
F707.38970480800003
tp179
I1
s(F1688.5981118034408
F-258.31509937121336
tp180
I1
s(F1687.4649849043431
F1869.1936635019033
tp181
I1
s(F-69.0
F-380.0302008166675
tp182
I2
s(F778.13599522331833
F668.79133341657689
tp183
I1
s(F498.01724356333375
F33.311279484894385
tp184
I2
s(F-140.0
F-167.93019999999996
tp185
I1
s(F994.62842354177633
F843.29826452598081
tp186
I1
s(F2143.0
F2143.9695037016081
tp187
I4
s(F274.11000000000001
F678.96917578359091
tp188
I1
s(F2137.0
F2081.9695037016081
tp189
I2
s(F2118.0
F2144.9695037016081
tp190
I3
s(F1103.6335306257579
F369.21867301662724
tp191
I1
s(F1362.6335306257579
F996.21867301662724
tp192
I1
s(F331.0078517287659
F674.36388978204388
tp193
I2
s(F517.01724356333375
F81.311279484894385
tp194
I1
s(F1647.0208820974003
F3.1633374213200796
tp195
I1
s(F2003.0670814249456
F-372.89911174325334
tp196
I1
s(F207.0
F659.9697991833325
tp197
I1
s(F118.0
F666.9697991833325
tp198
I1
s(F633.62464879229583
F627.93677357485399
tp199
I2
s(F1146.6335306257579
F1125.2186730166272
tp200
I1
s(F744.51486521641993
F64.935724858274853
tp201
I1
s(F204.00766070939403
F2135.3302410857368
tp202
I1
s(F207.0
F-177.0302008166675
tp203
I1
s(F977.63353062575788
F713.21867301662724
tp204
I3
s(F2138.0
F2144.9695037016081
tp205
I1
s(F2138.0670814249456
F2138.1008882567467
tp206
I1
s(F609.89410857966436
F690.47554104695155
tp207
I7
s(F973.02088209740032
F-368.83666257867992
tp208
I1
s(F946.04264590154332
F568.38970554360446
tp209
I3
s(F296.0078517287659
F677.36388978204388
tp210
I5
s(F1636.0208820974003
F-371.83666257867992
tp211
I1
s(F1841.5981118034408
F-284.31509937121336
tp212
I1
s(F1146.0289782481204
F1157.3897603662745
tp213
I1
s(F677.97216116624304
F766.97642057496705
tp214
I1
s(F-143.0
F919.96950370160835
tp215
I2
s(F2138.0
F2074.9695037016081
tp216
I1
s(F997.62842354177633
F1195.2982645259808
tp217
I1
s(F65.109999999999985
F691.96917578359091
tp218
I1
s(F-136.0
F-233.0
tp219
I2
s(F949.01198959649628
F798.19585052347293
tp220
I1
s(F1400.007660709394
F2131.3302410857368
tp221
I1
s(F1594.6335306257579
F447.21867301662724
tp222
I1
s(F582.77999999999997
F1511.9677794199458
tp223
I1
s(F1686.8941085796644
F-299.52445895304845
tp224
I4
s(F205.00766070939403
F2158.3302410857368
tp225
I1
s(F-87.0
F2174.9695037016081
tp226
I1
s(F775.77999999999997
F688.96777941994583
tp227
I1
s(F380.0
F-380.0302008166675
tp228
I2
s(F2004.78
F-379.03222058005412
tp229
I2
s(F948.62842354177633
F827.29826452598081
tp230
I2
s(F1981.0670814249456
F-349.89911174325334
tp231
I1
s(F931.51486521641993
F371.93572485827485
tp232
I1
s(F274.11000000000001
F-21.030824216409087
tp233
I1
s(F-143.98196216691252
F-164.61015522888701
tp234
I1
s(F951.01198959649628
F758.19585052347293
tp235
I2
s(F2121.4649849043431
F1868.1936635019033
tp236
I1
s(F282.0
F1728.0
tp237
I1
s(F632.62464879229583
F724.93677357485399
tp238
I1
s(F502.0078517287659
F624.36388978204388
tp239
I2
s(F920.13599522331833
F386.79133341657689
tp240
I1
s(F-147.0
F2159.9695037016081
tp241
I2
s(F111.0
F-234.0
tp242
I2
s(F1124.0
F1541.0
tp243
I1
s(F1032.0119895964963
F733.19585052347293
tp244
I2
s(F762.97216116624304
F767.97642057496705
tp245
I1
s(F-147.0
F2174.9695037016081
tp246
I1
s(F775.77999999999997
F1488.9677794199458
tp247
I1
s(F322.0078517287659
F709.36388978204388
tp248
I3
s(F1398.007660709394
F2145.3302410857368
tp249
I1
s(F1845.5981118034408
F-326.31509937121336
tp250
I1
s(F1574.4649849043431
F2143.1936635019033
tp251
I1
s(F556.51486521641993
F118.93572485827485
tp252
I1
s(F993.02088209740032
F10.16333742132008
tp253
I1
s(F168.00766070939403
F2159.3302410857368
tp254
I2
s(F1151.0
F1704.0
tp255
I1
s(F946.62842354177633
F833.29826452598081
tp256
I1
s(F1409.4649600769367
F2127.1936632999632
tp257
I2
s(F735.13599522331833
F385.79133341657689
tp258
I1
s(F506.0078517287659
F655.36388978204388
tp259
I4
s(F950.62842354177633
F1195.2982645259808
tp260
I2
s(F582.77999999999997
F853.96777941994583
tp261
I1
ssS'lines'
p262
(lp263
g0
(clevel
Line
p264
g2
Ntp265
Rp266
(dp267
S'lethal'
p268
I01
sS'start'
p269
(F-69.0
F-380.0302008166675
tp270
sS'end'
p271
(F380.0
F-380.0302008166675
tp272
sbag0
(g264
g2
Ntp273
Rp274
(dp275
g268
I01
sg269
(F65.109999999999985
F691.96917578359091
tp276
sg271
(F65.109999999999985
F-20.030824216409087
tp277
sbag0
(g264
g2
Ntp278
Rp279
(dp280
g268
I01
sg269
(F274.11000000000001
F-21.030824216409087
tp281
sg271
(F274.11000000000001
F678.96917578359091
tp282
sbag0
(g264
g2
Ntp283
Rp284
(dp285
g268
I01
sg269
(F380.0
F-380.0302008166675
tp286
sg271
(F2004.78
F-379.03222058005412
tp287
sbag0
(g264
g2
Ntp288
Rp289
(dp290
g268
I01
sg269
(F775.77999999999997
F688.96777941994583
tp291
sg271
(F775.77999999999997
F1488.9677794199458
tp292
sbag0
(g264
g2
Ntp293
Rp294
(dp295
g268
I01
sg269
(F582.77999999999997
F853.96777941994583
tp296
sg271
(F582.77999999999997
F1511.9677794199458
tp297
sbag0
(g264
g2
Ntp298
Rp299
(dp300
g268
I01
sg269
(F-140.0
F-167.93019999999996
tp301
sg271
(F-143.0
F919.96950370160835
tp302
sbag0
(g264
g2
Ntp303
Rp304
(dp305
g268
I00
sg269
(F-143.0
F919.96950370160835
tp306
sg271
(F-147.0
F2159.9695037016081
tp307
sbag0
(g264
g2
Ntp308
Rp309
(dp310
g268
I00
sg269
(F-147.0
F2174.9695037016081
tp311
sg271
(F-87.0
F2174.9695037016081
tp312
sbag0
(g264
g2
Ntp313
Rp314
(dp315
g268
I00
sg269
(F-147.0
F2159.9695037016081
tp316
sg271
(F2118.0
F2144.9695037016081
tp317
sbag0
(g264
g2
Ntp318
Rp319
(dp320
g268
I00
sg269
(F2138.0
F2144.9695037016081
tp321
sg271
(F2138.0
F2074.9695037016081
tp322
sbag0
(g264
g2
Ntp323
Rp324
(dp325
g268
I00
sg269
(F2118.0
F2144.9695037016081
tp326
sg271
(F2143.0
F2143.9695037016081
tp327
sbag0
(g264
g2
Ntp328
Rp329
(dp330
g268
I00
sg269
(F2143.0
F2143.9695037016081
tp331
sg271
(F2143.0
F2143.9695037016081
tp332
sbag0
(g264
g2
Ntp333
Rp334
(dp335
g268
I00
sg269
(F2143.0
F2143.9695037016081
tp336
sg271
(F2137.0
F2081.9695037016081
tp337
sbag0
(g264
g2
Ntp338
Rp339
(dp340
g268
I00
sg269
(F2137.0
F2081.9695037016081
tp341
sg271
(F2004.78
F-379.03222058005412
tp342
sbag0
(g264
g2
Ntp343
Rp344
(dp345
g268
I00
sg269
(F-136.0
F-233.0
tp346
sg271
(F111.0
F-234.0
tp347
sbag0
(g264
g2
Ntp348
Rp349
(dp350
g268
I00
sg269
(F111.0
F-234.0
tp351
sg271
(F-69.0
F-380.0302008166675
tp352
sbag0
(g264
g2
Ntp353
Rp354
(dp355
g268
I00
sg269
(F-136.0
F-233.0
tp356
sg271
(F-143.98196216691252
F-164.61015522888701
tp357
sbag0
(g264
g2
Ntp358
Rp359
(dp360
g268
I00
sg269
(F168.00766070939403
F2159.3302410857368
tp361
sg271
(F168.00766070939403
F2159.3302410857368
tp362
sbag0
(g264
g2
Ntp363
Rp364
(dp365
g268
I00
sg269
(F540.89410857966436
F693.47554104695155
tp366
sg271
(F609.89410857966436
F690.47554104695155
tp367
sbag0
(g264
g2
Ntp368
Rp369
(dp370
g268
I00
sg269
(F2003.8941085796644
F-359.52445895304845
tp371
sg271
(F1686.8941085796644
F-299.52445895304845
tp372
sbag0
(g264
g2
Ntp373
Rp374
(dp375
g268
I00
sg269
(F1686.8941085796644
F-299.52445895304845
tp376
sg271
(F1686.8941085796644
F-299.52445895304845
tp377
sbag0
(g264
g2
Ntp378
Rp379
(dp380
g268
I00
sg269
(F950.62842354177633
F1195.2982645259808
tp381
sg271
(F948.62842354177633
F827.29826452598081
tp382
sbag0
(g264
g2
Ntp383
Rp384
(dp385
g268
I00
sg269
(F1409.4649600769367
F2127.1936632999632
tp386
sg271
(F1409.4649600769367
F2127.1936632999632
tp387
sbag0
(g264
g2
Ntp388
Rp389
(dp390
g268
I00
sg269
(F977.63353062575788
F713.21867301662724
tp391
sg271
(F977.63353062575788
F713.21867301662724
tp392
sbag0
(g264
g2
Ntp393
Rp394
(dp395
g268
I00
sg269
(F1144.6335306257579
F1148.2186730166272
tp396
sg271
(F1144.6335306257579
F1148.2186730166272
tp397
sbag0
(g264
g2
Ntp398
Rp399
(dp400
g268
I00
sg269
(F948.62842354177633
F827.29826452598081
tp401
sg271
(F946.04264590154332
F568.38970554360446
tp402
sbag0
(g264
g2
Ntp403
Rp404
(dp405
g268
I01
sg269
(F977.04265714138114
F707.38970480800003
tp406
sg271
(F977.63353062575788
F713.21867301662724
tp407
sbag0
(g264
g2
Ntp408
Rp409
(dp410
g268
I00
sg269
(F951.01198959649628
F758.19585052347293
tp411
sg271
(F1009.0119895964963
F716.19585052347293
tp412
sbag0
(g264
g2
Ntp413
Rp414
(dp415
g268
I00
sg269
(F1009.0119895964963
F716.19585052347293
tp416
sg271
(F946.04264590154332
F568.38970554360446
tp417
sbag0
(g264
g2
Ntp418
Rp419
(dp420
g268
I00
sg269
(F296.0078517287659
F677.36388978204388
tp421
sg271
(F296.0078517287659
F677.36388978204388
tp422
sbag0
(g264
g2
Ntp423
Rp424
(dp425
g268
I00
sg269
(F296.0078517287659
F677.36388978204388
tp426
sg271
(F322.0078517287659
F709.36388978204388
tp427
sbag0
(g264
g2
Ntp428
Rp429
(dp430
g268
I00
sg269
(F322.0078517287659
F709.36388978204388
tp431
sg271
(F506.0078517287659
F655.36388978204388
tp432
sbag0
(g264
g2
Ntp433
Rp434
(dp435
g268
I00
sg269
(F506.0078517287659
F655.36388978204388
tp436
sg271
(F611.0078517287659
F653.36388978204388
tp437
sbag0
(g264
g2
Ntp438
Rp439
(dp440
g268
I00
sg269
(F609.89410857966436
F690.47554104695155
tp441
sg271
(F609.89410857966436
F690.47554104695155
tp442
sbag0
(g264
g2
Ntp443
Rp444
(dp445
g268
I00
sg269
(F611.0078517287659
F653.36388978204388
tp446
sg271
(F611.0078517287659
F653.36388978204388
tp447
sbag0
(g264
g2
Ntp448
Rp449
(dp450
g268
I00
sg269
(F609.89410857966436
F690.47554104695155
tp451
sg271
(F609.89410857966436
F690.47554104695155
tp452
sbag0
(g264
g2
Ntp453
Rp454
(dp455
g268
I00
sg269
(F609.89410857966436
F690.47554104695155
tp456
sg271
(F611.0078517287659
F653.36388978204388
tp457
sbag0
(g264
g2
Ntp458
Rp459
(dp460
g268
I00
sg269
(F296.0078517287659
F677.36388978204388
tp461
sg271
(F498.01724356333375
F33.311279484894385
tp462
sbag0
(g264
g2
Ntp463
Rp464
(dp465
g268
I01
sg269
(F1144.6335306257579
F1148.2186730166272
tp466
sg271
(F1146.0289782481204
F1157.3897603662745
tp467
sbag0
(g264
g2
Ntp468
Rp469
(dp470
g268
I00
sg269
(F677.97216116624304
F766.97642057496705
tp471
sg271
(F762.97216116624304
F767.97642057496705
tp472
sbasS'goal'
p473
g0
(cportal
Portal
p474
g2
Ntp475
Rp476
(dp477
S'position'
p478
(F678.77999999999997
F932.96777941994583
tp479
sbsS'emitters'
p480
(lp481
g0
(cparticles
Emitter
p482
g2
Ntp483
Rp484
(dp485
S'position'
p486
(F1362.6335306257579
F996.21867301662724
tp487
sS'counter'
p488
F0.0039999999999979635
sbag0
(g482
g2
Ntp489
Rp490
(dp491
g478
(F860.97216116624293
F559.97642057496705
tp492
sS'counter'
p493
F0.0039999999999972974
sbag0
(g482
g2
Ntp494
Rp495
(dp496
g478
(F311.97216116624304
F1640.9764205749671
tp497
sg493
F0.04299999999999711
sbag0
(g482
g2
Ntp498
Rp499
(dp500
g478
(F1450.972161166243
F682.97642057496705
tp501
sg493
F0.025999999999997716
sbag0
(g482
g2
Ntp502
Rp503
(dp504
g478
(F799.97216116624304
F184.97642057496705
tp505
sg493
F0.04599999999999739
sbasb.