ccopy_reg
_reconstructor
p0
(clevel
Level
p1
c__builtin__
object
p2
Ntp3
Rp4
(dp5
S'gvols'
p6
(lp7
g0
(cgravityvolume
GravityVolume
p8
g2
Ntp9
Rp10
(dp11
S'vertices'
p12
(lp13
(F-215.0
F146.35140000000018
tp14
a(F-217.0
F-492.64859999999982
tp15
a(F190.0
F-492.64859999999982
tp16
a(F202.0
F161.35140000000018
tp17
asS'g'
p18
(F0.0
F-48.0
tp19
sbag0
(g8
g2
Ntp20
Rp21
(dp22
g12
(lp23
(F537.84918497003434
F-495.59639138307659
tp24
a(F915.84918497003434
F-492.59639138307648
tp25
a(F916.84918497003434
F-1316.5963913830765
tp26
a(F533.84918497003434
F-1325.5963913830765
tp27
asg18
(F2.0
F-28.0
tp28
sbag0
(g8
g2
Ntp29
Rp30
(dp31
g12
(lp32
(F537.84918497003434
F-495.59639138307659
tp33
a(F541.0
F-379.0
tp34
a(F901.0
F-389.0
tp35
a(F915.84918497003434
F-492.59639138307648
tp36
asg18
(F2.0
F-77.0
tp37
sbasS'snaps'
p38
(dp39
(F764.54999999999995
F-1245.588336
tp40
I1
s(F873.46100865611709
F-683.98705519269083
tp41
I1
s(F190.0
F-492.64859999999982
tp42
I1
s(F202.0
F161.35140000000018
tp43
I1
s(F645.3499999999998
F-450.19190400000042
tp44
I1
s(F901.0
F-389.0
tp45
I1
s(F138.0
F-495.64859999999982
tp46
I4
s(F-217.0
F-492.64859999999982
tp47
I1
s(F572.46100865611709
F-627.98705519269083
tp48
I1
s(F-174.0
F-494.64859999999982
tp49
I1
s(F971.84918497003434
F-1526.5963913830765
tp50
I1
s(F916.84918497003434
F-1316.5963913830765
tp51
I1
s(F915.84918497003434
F-492.59639138307648
tp52
I3
s(F641.46100865611709
F-628.98705519269083
tp53
I1
s(F533.84918497003434
F-1325.5963913830765
tp54
I2
s(F540.54999999999995
F-1181.588336
tp55
I1
s(F689.54999999999995
F-1328.588336
tp56
I1
s(F706.54999999999995
F-1108.588336
tp57
I2
s(F510.3499999999998
F-452.19190400000042
tp58
I2
s(F918.84918497003434
F-1338.5963913830765
tp59
I1
s(F776.46100865611709
F-683.98705519269083
tp60
I1
s(F912.54999999999995
F-1107.588336
tp61
I1
s(F488.3499999999998
F-491.19190400000042
tp62
I1
s(F741.84918497003434
F-839.59639138307659
tp63
I1
s(F537.84918497003434
F-495.59639138307659
tp64
I6
s(F555.84918497003434
F-1527.5963913830765
tp65
I1
s(F552.84918497003434
F-842.59639138307659
tp66
I1
s(F-215.0
F146.35140000000018
tp67
I1
s(F541.0
F-379.0
tp68
I1
ssS'lines'
p69
(lp70
g0
(clevel
Line
p71
g2
Ntp72
Rp73
(dp74
S'lethal'
p75
I00
sS'start'
p76
(F-174.0
F-494.64859999999982
tp77
sS'end'
p78
(F138.0
F-495.64859999999982
tp79
sbag0
(g71
g2
Ntp80
Rp81
(dp82
g75
I00
sg76
(F138.0
F-495.64859999999982
tp83
sg78
(F138.0
F-495.64859999999982
tp84
sbag0
(g71
g2
Ntp85
Rp86
(dp87
g75
I00
sg76
(F138.0
F-495.64859999999982
tp88
sg78
(F537.84918497003434
F-495.59639138307659
tp89
sbag0
(g71
g2
Ntp90
Rp91
(dp92
g75
I01
sg76
(F552.84918497003434
F-842.59639138307659
tp93
sg78
(F741.84918497003434
F-839.59639138307659
tp94
sbag0
(g71
g2
Ntp95
Rp96
(dp97
g75
I01
sg76
(F537.84918497003434
F-495.59639138307659
tp98
sg78
(F533.84918497003434
F-1325.5963913830765
tp99
sbag0
(g71
g2
Ntp100
Rp101
(dp102
g75
I01
sg76
(F915.84918497003434
F-492.59639138307648
tp103
sg78
(F918.84918497003434
F-1338.5963913830765
tp104
sbag0
(g71
g2
Ntp105
Rp106
(dp107
g75
I01
sg76
(F555.84918497003434
F-1527.5963913830765
tp108
sg78
(F971.84918497003434
F-1526.5963913830765
tp109
sbag0
(g71
g2
Ntp110
Rp111
(dp112
g75
I00
sg76
(F488.3499999999998
F-491.19190400000042
tp113
sg78
(F510.3499999999998
F-452.19190400000042
tp114
sbag0
(g71
g2
Ntp115
Rp116
(dp117
g75
I00
sg76
(F510.3499999999998
F-452.19190400000042
tp118
sg78
(F645.3499999999998
F-450.19190400000042
tp119
sbag0
(g71
g2
Ntp120
Rp121
(dp122
g75
I00
sg76
(F537.84918497003434
F-495.59639138307659
tp123
sg78
(F537.84918497003434
F-495.59639138307659
tp124
sbag0
(g71
g2
Ntp125
Rp126
(dp127
g75
I01
sg76
(F572.46100865611709
F-627.98705519269083
tp128
sg78
(F641.46100865611709
F-628.98705519269083
tp129
sbag0
(g71
g2
Ntp130
Rp131
(dp132
g75
I01
sg76
(F776.46100865611709
F-683.98705519269083
tp133
sg78
(F873.46100865611709
F-683.98705519269083
tp134
sbag0
(g71
g2
Ntp135
Rp136
(dp137
g75
I01
sg76
(F706.54999999999995
F-1108.588336
tp138
sg78
(F912.54999999999995
F-1107.588336
tp139
sbag0
(g71
g2
Ntp140
Rp141
(dp142
g75
I01
sg76
(F540.54999999999995
F-1181.588336
tp143
sg78
(F689.54999999999995
F-1328.588336
tp144
sbag0
(g71
g2
Ntp145
Rp146
(dp147
g75
I01
sg76
(F706.54999999999995
F-1108.588336
tp148
sg78
(F764.54999999999995
F-1245.588336
tp149
sbasS'goal'
p150
g0
(cportal
Portal
p151
g2
Ntp152
Rp153
(dp154
S'position'
p155
(F729.84918497003434
F-1291.5963913830765
tp156
sbsS'emitters'
p157
(lp158
g0
(cparticles
Emitter
p159
g2
Ntp160
Rp161
(dp162
S'position'
p163
(F699.96308757615486
F-443.81005628959667
tp164
sS'counter'
p165
F0.046000000000000221
sbasb.