ccopy_reg
_reconstructor
p0
(clevel
Level
p1
c__builtin__
object
p2
Ntp3
Rp4
(dp5
S'snaps'
p6
(dp7
(F-946.4336069516321
F171.34814059214773
tp8
I2
s(F-468.29999999999995
F-460.62577049173518
tp9
I1
s(F-190.0
F-184.5257
tp10
I2
s(F-467.29999999999995
F-45.625770491735182
tp11
I1
s(F-349.13999999999999
F-258.63763691872305
tp12
I1
s(F-350.13999999999999
F-427.63763691872305
tp13
I1
s(F-953.63999999999999
F-183.62570066272184
tp14
I2
s(F-195.13999999999996
F-448.63763691872305
tp15
I1
s(F154.5663930483679
F149.34814059214773
tp16
I2
s(F-621.63999999999999
F-477.62570066272184
tp17
I2
s(F-190.63999999999999
F-477.62570066272184
tp18
I2
s(F152.5663930483679
F-131.65185940785227
tp19
I2
s(F-372.4336069516321
F99.348140592147729
tp20
I3
s(F-191.13999999999996
F-261.63763691872305
tp21
I1
s(F-401.4336069516321
F-226.65185940785227
tp22
I1
s(F-621.29999999999995
F-458.62577049173518
tp23
I1
s(F-621.63999999999999
F-183.62570066272184
tp24
I2
s(F-620.29999999999995
F-42.625770491735182
tp25
I1
ssS'goal'
p26
g0
(cportal
Portal
p27
g2
Ntp28
Rp29
(dp30
S'position'
p31
(F-855.0
F-100.62570000335455
tp32
sbsS'gvols'
p33
(lp34
g0
(cgravityvolume
GravityVolume
p35
g2
Ntp36
Rp37
(dp38
S'vertices'
p39
(lp40
(F-191.13999999999996
F-261.63763691872305
tp41
a(F-349.13999999999999
F-258.63763691872305
tp42
a(F-350.13999999999999
F-427.63763691872305
tp43
a(F-195.13999999999996
F-448.63763691872305
tp44
asS'g'
p45
(F703.0
F-15.0
tp46
sbag0
(g35
g2
Ntp47
Rp48
(dp49
g39
(lp50
(F-621.29999999999995
F-458.62577049173518
tp51
a(F-468.29999999999995
F-460.62577049173518
tp52
a(F-467.29999999999995
F-45.625770491735182
tp53
a(F-620.29999999999995
F-42.625770491735182
tp54
asg45
(F-659.0
F-9.0
tp55
sbasS'coins'
p56
(lp57
g0
(ccoin
Coin
p58
g2
Ntp59
Rp60
(dp61
g31
(F-408.28475850488962
F-443.46668030523421
tp62
sbag0
(g58
g2
Ntp63
Rp64
(dp65
g31
(F-402.28475850488962
F-244.46668030523421
tp66
sbag0
(g58
g2
Ntp67
Rp68
(dp69
g31
(F-403.44405532421024
F-312.60201123248652
tp70
sbag0
(g58
g2
Ntp71
Rp72
(dp73
g31
(F-403.44405532421024
F-376.60201123248652
tp74
sbasS'lines'
p75
(lp76
g0
(clevel
Line
p77
g2
Ntp78
Rp79
(dp80
S'lethal'
p81
I00
sS'start'
p82
(F-190.0
F-184.5257
tp83
sS'end'
p84
(F-190.63999999999999
F-477.62570066272184
tp85
sbag0
(g77
g2
Ntp86
Rp87
(dp88
g81
I01
sg82
(F-190.63999999999999
F-477.62570066272184
tp89
sg84
(F-621.63999999999999
F-477.62570066272184
tp90
sbag0
(g77
g2
Ntp91
Rp92
(dp93
g81
I00
sg82
(F-621.63999999999999
F-477.62570066272184
tp94
sg84
(F-621.63999999999999
F-183.62570066272184
tp95
sbag0
(g77
g2
Ntp96
Rp97
(dp98
g81
I00
sg82
(F-621.63999999999999
F-183.62570066272184
tp99
sg84
(F-953.63999999999999
F-183.62570066272184
tp100
sbag0
(g77
g2
Ntp101
Rp102
(dp103
g81
I00
sg82
(F-621.63999999999999
F-183.62570066272184
tp104
sg84
(F-621.63999999999999
F-477.62570066272184
tp105
sbag0
(g77
g2
Ntp106
Rp107
(dp108
g81
I00
sg82
(F-190.0
F-184.5257
tp109
sg84
(F152.5663930483679
F-131.65185940785227
tp110
sbag0
(g77
g2
Ntp111
Rp112
(dp113
g81
I00
sg82
(F152.5663930483679
F-131.65185940785227
tp114
sg84
(F154.5663930483679
F149.34814059214773
tp115
sbag0
(g77
g2
Ntp116
Rp117
(dp118
g81
I00
sg82
(F154.5663930483679
F149.34814059214773
tp119
sg84
(F-372.4336069516321
F99.348140592147729
tp120
sbag0
(g77
g2
Ntp121
Rp122
(dp123
g81
I01
sg82
(F-372.4336069516321
F99.348140592147729
tp124
sg84
(F-401.4336069516321
F-226.65185940785227
tp125
sbag0
(g77
g2
Ntp126
Rp127
(dp128
g81
I00
sg82
(F-372.4336069516321
F99.348140592147729
tp129
sg84
(F-946.4336069516321
F171.34814059214773
tp130
sbag0
(g77
g2
Ntp131
Rp132
(dp133
g81
I00
sg82
(F-946.4336069516321
F171.34814059214773
tp134
sg84
(F-953.63999999999999
F-183.62570066272184
tp135
sbasS'emitters'
p136
(lp137
g0
(cparticles
Emitter
p138
g2
Ntp139
Rp140
(dp141
S'position'
p142
(F-293.0
F-371.62570644222808
tp143
sS'counter'
p144
F0.046999999999995448
sbag0
(g138
g2
Ntp145
Rp146
(dp147
g142
(F-483.0
F-360.62570644222808
tp148
sg144
F0.037999999999995454
sbasb.