ccopy_reg
_reconstructor
p0
(clevel
Level
p1
c__builtin__
object
p2
Ntp3
Rp4
(dp5
S'gvols'
p6
(lp7
g0
(cgravityvolume
GravityVolume
p8
g2
Ntp9
Rp10
(dp11
S'vertices'
p12
(lp13
(F330.78999999999962
F-376.0974000014894
tp14
a(F600.78999999999962
F-376.0974000014894
tp15
a(F602.78999999999962
F-282.0974000014894
tp16
a(F330.78999999999962
F-282.0974000014894
tp17
asS'g'
p18
(F0.0
F4897.0
tp19
sbag0
(g8
g2
Ntp20
Rp21
(dp22
g12
(lp23
(F875.78999999999962
F-381.0974000014894
tp24
a(F872.0
F-278.0974000014894
tp25
a(F1081.0
F-278.0974000014894
tp26
a(F1080.0
F-392.0974000014894
tp27
asg18
(F-1.0
F4033.0
tp28
sbag0
(g8
g2
Ntp29
Rp30
(dp31
g12
(lp32
(F1314.1699999999998
F-286.09744691892831
tp33
a(F1313.1699999999998
F-393.09744691892831
tp34
a(F1402.1699999999998
F-393.09744691892831
tp35
a(F1406.1699999999998
F-277.09744691892831
tp36
asg18
(F-14.0
F3871.0
tp37
sbag0
(g8
g2
Ntp38
Rp39
(dp40
g12
(lp41
(F331.0
F-115.99739999999929
tp42
a(F333.0
F-136.10899236748355
tp43
a(F-275.0
F-135.10899236748355
tp44
a(F-274.0
F-115.99739999999929
tp45
asg18
(F-3.0
F2044.0
tp46
sbag0
(g8
g2
Ntp47
Rp48
(dp49
g12
(lp50
(F1086.0
F-279.09777788599416
tp51
a(F1156.0
F-287.09777788599416
tp52
a(F1150.0
F-386.09777788599416
tp53
a(F1074.0
F-389.09777788599416
tp54
asg18
(F-16.0
F1965.0
tp55
sbasS'snaps'
p56
(dp57
(F-507.0
F188.89100763251645
tp58
I2
s(F1080.0
F-392.0974000014894
tp59
I1
s(F602.78999999999962
F-282.0974000014894
tp60
I1
s(F1086.0
F-279.09777788599416
tp61
I1
s(F875.78999999999962
F-381.0974000014894
tp62
I1
s(F599.0
F-104.09740000148943
tp63
I4
s(F1406.1699999999998
F-277.09744691892831
tp64
I1
s(F1313.1699999999998
F-393.09744691892831
tp65
I1
s(F1402.1699999999998
F-393.09744691892831
tp66
I1
s(F357.0
F176.00260000000071
tp67
I2
s(F600.78999999999962
F-376.0974000014894
tp68
I2
s(F-273.0
F176.00260000000071
tp69
I2
s(F-275.0
F-135.10899236748355
tp70
I1
s(F330.78999999999962
F-282.0974000014894
tp71
I1
s(F358.0
F349.9025999985106
tp72
I2
s(F331.0
F-115.99739999999929
tp73
I2
s(F1150.0
F-386.09777788599416
tp74
I1
s(F2028.2899999999997
F144.90232891658127
tp75
I2
s(F872.0
F-278.0974000014894
tp76
I1
s(F1156.0
F-287.09777788599416
tp77
I1
s(F748.94999999999993
F-348.0974000014894
tp78
I1
s(F-274.0
F-115.99739999999929
tp79
I2
s(F-292.71000000000026
F-533.09767108341873
tp80
I2
s(F-502.0
F-531.10899236748355
tp81
I2
s(F1081.0
F-278.0974000014894
tp82
I1
s(F1314.1699999999998
F-286.09744691892831
tp83
I1
s(F1074.0
F-389.09777788599416
tp84
I1
s(F330.78999999999962
F-376.0974000014894
tp85
I1
s(F333.0
F-136.10899236748355
tp86
I1
s(F2022.2899999999997
F-534.09767108341873
tp87
I2
s(F750.94999999999993
F-104.09740000148943
tp88
I2
s(F2069.0
F347.9025999985106
tp89
I2
ssS'lines'
p90
(lp91
g0
(clevel
Line
p92
g2
Ntp93
Rp94
(dp95
S'lethal'
p96
I00
sS'start'
p97
(F-274.0
F-115.99739999999929
tp98
sS'end'
p99
(F331.0
F-115.99739999999929
tp100
sbag0
(g92
g2
Ntp101
Rp102
(dp103
g96
I00
sg97
(F357.0
F176.00260000000071
tp104
sg99
(F-273.0
F176.00260000000071
tp105
sbag0
(g92
g2
Ntp106
Rp107
(dp108
g96
I00
sg97
(F600.78999999999962
F-376.0974000014894
tp109
sg99
(F599.0
F-104.09740000148943
tp110
sbag0
(g92
g2
Ntp111
Rp112
(dp113
g96
I00
sg97
(F599.0
F-104.09740000148943
tp114
sg99
(F599.0
F-104.09740000148943
tp115
sbag0
(g92
g2
Ntp116
Rp117
(dp118
g96
I01
sg97
(F599.0
F-104.09740000148943
tp119
sg99
(F750.94999999999993
F-104.09740000148943
tp120
sbag0
(g92
g2
Ntp121
Rp122
(dp123
g96
I00
sg97
(F750.94999999999993
F-104.09740000148943
tp124
sg99
(F748.94999999999993
F-348.0974000014894
tp125
sbag0
(g92
g2
Ntp126
Rp127
(dp128
g96
I01
sg97
(F-292.71000000000026
F-533.09767108341873
tp129
sg99
(F2022.2899999999997
F-534.09767108341873
tp130
sbag0
(g92
g2
Ntp131
Rp132
(dp133
g96
I01
sg97
(F2022.2899999999997
F-534.09767108341873
tp134
sg99
(F2028.2899999999997
F144.90232891658127
tp135
sbag0
(g92
g2
Ntp136
Rp137
(dp138
g96
I00
sg97
(F357.0
F176.00260000000071
tp139
sg99
(F358.0
F349.9025999985106
tp140
sbag0
(g92
g2
Ntp141
Rp142
(dp143
g96
I00
sg97
(F358.0
F349.9025999985106
tp144
sg99
(F2069.0
F347.9025999985106
tp145
sbag0
(g92
g2
Ntp146
Rp147
(dp148
g96
I00
sg97
(F2069.0
F347.9025999985106
tp149
sg99
(F2028.2899999999997
F144.90232891658127
tp150
sbag0
(g92
g2
Ntp151
Rp152
(dp153
g96
I00
sg97
(F-292.71000000000026
F-533.09767108341873
tp154
sg99
(F-502.0
F-531.10899236748355
tp155
sbag0
(g92
g2
Ntp156
Rp157
(dp158
g96
I00
sg97
(F-502.0
F-531.10899236748355
tp159
sg99
(F-507.0
F188.89100763251645
tp160
sbag0
(g92
g2
Ntp161
Rp162
(dp163
g96
I00
sg97
(F-507.0
F188.89100763251645
tp164
sg99
(F-273.0
F176.00260000000071
tp165
sbasS'goal'
p166
g0
(cportal
Portal
p167
g2
Ntp168
Rp169
(dp170
S'position'
p171
(F1723.2899999999997
F-167.09767108341873
tp172
sbsS'emitters'
p173
(lp174
g0
(cparticles
Emitter
p175
g2
Ntp176
Rp177
(dp178
S'position'
p179
(F861.94999999999993
F-140.09740000148943
tp180
sS'counter'
p181
F0.024999999999999134
sbag0
(g175
g2
Ntp182
Rp183
(dp184
g179
(F452.94999999999993
F-159.09740000148943
tp185
sg181
F0.032999999999999037
sbag0
(g175
g2
Ntp186
Rp187
(dp188
g179
(F1311.9499999999998
F-158.09740000148943
tp189
sg181
F0.0089999999999988145
sbag0
(g175
g2
Ntp190
Rp191
(dp192
g171
(F1034.0
F-123.09777788599416
tp193
sS'counter'
p194
F0.0059999999999999359
sbasb.