ccopy_reg
_reconstructor
p0
(clevel
Level
p1
c__builtin__
object
p2
Ntp3
Rp4
(dp5
S'snaps'
p6
(dp7
(F1356.0
F-382.0974073366392
tp8
I2
s(F1374.0
F2266.80259266187
tp9
I4
s(F368.24000000000024
F55.90259999851056
tp10
I4
s(F1375.0
F-123.09743565209777
tp11
I2
s(F1474.0
F3405.795661138541
tp12
I1
s(F2208.0
F3415.8004164540116
tp13
I1
s(F1112.0
F-1.1974073381297785
tp14
I2
s(F1099.0
F1942.8025926618702
tp15
I1
s(F1470.0
F3792.795661138541
tp16
I1
s(F769.6300000000015
F-197.1974073381421
tp17
I1
s(F472.6300000000015
F-197.1974073381421
tp18
I1
s(F2207.0
F3442.8004164540116
tp19
I1
s(F2597.0
F3276.848
tp20
I2
s(F970.0
F358.9025926633608
tp21
I2
s(F1374.0
F1723.796330894256
tp22
I2
s(F865.2400000000002
F222.90259999851057
tp23
I4
s(F1335.0
F-55.19740733812978
tp24
I1
s(F1676.0
F3741.795661138541
tp25
I1
s(F1074.0
F-55.19740733812978
tp26
I1
s(F864.0
F61.90259266336079
tp27
I3
s(F865.2400000000002
F55.90259999851056
tp28
I3
s(F1371.0
F-382.0974073366392
tp29
I2
s(F1374.0
F3276.795661138541
tp30
I2
s(F253.0
F335.9025926633608
tp31
I2
s(F259.0
F-37.09740733663921
tp32
I2
s(F2205.0
F3883.8004164540116
tp33
I1
s(F1374.2400000000002
F436.9025999985106
tp34
I2
s(F1954.0
F3883.8004164540116
tp35
I3
s(F-274.0
F-382.0974073366392
tp36
I2
s(F1671.0
F3883.8004164540116
tp37
I1
s(F369.24000000000024
F222.90259999851057
tp38
I4
s(F972.0
F-36.09740733663921
tp39
I2
s(F-274.0
F-115.99739999999929
tp40
I2
s(F1954.0
F3627.8004164540116
tp41
I1
s(F1335.0
F1942.8025926618702
tp42
I1
s(F1675.0
F3794.795661138541
tp43
I1
s(F2597.0
F5044.848
tp44
I1
s(F1676.0
F3461.795661138541
tp45
I1
s(F1678.0
F3408.795661138541
tp46
I2
s(F2239.0
F3276.795661138541
tp47
I2
s(F-273.0
F551.9025643479022
tp48
I1
s(F2207.0
F3689.8004164540116
tp49
I4
s(F1956.0
F3413.8004164540116
tp50
I2
ssS'goal'
p51
g0
(cportal
Portal
p52
g2
Ntp53
Rp54
(dp55
S'position'
p56
(F2363.0
F3799.848
tp57
sbsS'lines'
p58
(lp59
g0
(clevel
Line
p60
g2
Ntp61
Rp62
(dp63
S'lethal'
p64
I00
sS'start'
p65
(F-274.0
F-115.99739999999929
tp66
sS'end'
p67
(F-273.0
F551.9025643479022
tp68
sbag0
(g60
g2
Ntp69
Rp70
(dp71
g64
I00
sg65
(F368.24000000000024
F55.90259999851056
tp72
sg67
(F865.2400000000002
F55.90259999851056
tp73
sbag0
(g60
g2
Ntp74
Rp75
(dp76
g64
I00
sg65
(F865.2400000000002
F55.90259999851056
tp77
sg67
(F865.2400000000002
F222.90259999851057
tp78
sbag0
(g60
g2
Ntp79
Rp80
(dp81
g64
I00
sg65
(F865.2400000000002
F222.90259999851057
tp82
sg67
(F369.24000000000024
F222.90259999851057
tp83
sbag0
(g60
g2
Ntp84
Rp85
(dp86
g64
I00
sg65
(F369.24000000000024
F222.90259999851057
tp87
sg67
(F368.24000000000024
F55.90259999851056
tp88
sbag0
(g60
g2
Ntp89
Rp90
(dp91
g64
I00
sg65
(F1375.0
F-123.09743565209777
tp92
sg67
(F1374.2400000000002
F436.9025999985106
tp93
sbag0
(g60
g2
Ntp94
Rp95
(dp96
g64
I00
sg65
(F-274.0
F-115.99739999999929
tp97
sg67
(F-274.0
F-382.0974073366392
tp98
sbag0
(g60
g2
Ntp99
Rp100
(dp101
g64
I00
sg65
(F-274.0
F-382.0974073366392
tp102
sg67
(F1356.0
F-382.0974073366392
tp103
sbag0
(g60
g2
Ntp104
Rp105
(dp106
g64
I00
sg65
(F1356.0
F-382.0974073366392
tp107
sg67
(F1371.0
F-382.0974073366392
tp108
sbag0
(g60
g2
Ntp109
Rp110
(dp111
g64
I00
sg65
(F1375.0
F-123.09743565209777
tp112
sg67
(F1371.0
F-382.0974073366392
tp113
sbag0
(g60
g2
Ntp114
Rp115
(dp116
g64
I00
sg65
(F864.0
F61.90259266336079
tp117
sg67
(F864.0
F61.90259266336079
tp118
sbag0
(g60
g2
Ntp119
Rp120
(dp121
g64
I00
sg65
(F472.6300000000015
F-197.1974073381421
tp122
sg67
(F769.6300000000015
F-197.1974073381421
tp123
sbag0
(g60
g2
Ntp124
Rp125
(dp126
g64
I00
sg65
(F1374.2400000000002
F436.9025999985106
tp127
sg67
(F1374.0
F1723.796330894256
tp128
sbag0
(g60
g2
Ntp129
Rp130
(dp131
g64
I00
sg65
(F1374.0
F1723.796330894256
tp132
sg67
(F1374.0
F2266.80259266187
tp133
sbag0
(g60
g2
Ntp134
Rp135
(dp136
g64
I00
sg65
(F1112.0
F-1.1974073381297785
tp137
sg67
(F1112.0
F-1.1974073381297785
tp138
sbag0
(g60
g2
Ntp139
Rp140
(dp141
g64
I00
sg65
(F1676.0
F3741.795661138541
tp142
sg67
(F1676.0
F3461.795661138541
tp143
sbag0
(g60
g2
Ntp144
Rp145
(dp146
g64
I00
sg65
(F1374.0
F2266.80259266187
tp147
sg67
(F1374.0
F2266.80259266187
tp148
sbag0
(g60
g2
Ntp149
Rp150
(dp151
g64
I00
sg65
(F1374.0
F2266.80259266187
tp152
sg67
(F1374.0
F3276.795661138541
tp153
sbag0
(g60
g2
Ntp154
Rp155
(dp156
g64
I01
sg65
(F1374.0
F3276.795661138541
tp157
sg67
(F2239.0
F3276.795661138541
tp158
sbag0
(g60
g2
Ntp159
Rp160
(dp161
g64
I00
sg65
(F1954.0
F3883.8004164540116
tp162
sg67
(F1954.0
F3627.8004164540116
tp163
sbag0
(g60
g2
Ntp164
Rp165
(dp166
g64
I00
sg65
(F2207.0
F3689.8004164540116
tp167
sg67
(F2207.0
F3442.8004164540116
tp168
sbag0
(g60
g2
Ntp169
Rp170
(dp171
g64
I00
sg65
(F2207.0
F3689.8004164540116
tp172
sg67
(F2207.0
F3689.8004164540116
tp173
sbag0
(g60
g2
Ntp174
Rp175
(dp176
g64
I01
sg65
(F2239.0
F3276.795661138541
tp177
sg67
(F2597.0
F3276.848
tp178
sbag0
(g60
g2
Ntp179
Rp180
(dp181
g64
I01
sg65
(F2597.0
F3276.848
tp182
sg67
(F2597.0
F5044.848
tp183
sbasS'coins'
p184
(lp185
g0
(ccoin
Coin
p186
g2
Ntp187
Rp188
(dp189
g56
(F431.0
F12.9688586882869
tp190
sbag0
(g186
g2
Ntp191
Rp192
(dp193
g56
(F556.0
F12.9688586882869
tp194
sbag0
(g186
g2
Ntp195
Rp196
(dp197
g56
(F682.0
F12.9688586882869
tp198
sbag0
(g186
g2
Ntp199
Rp200
(dp201
g56
(F803.0
F12.9688586882869
tp202
sbag0
(g186
g2
Ntp203
Rp204
(dp205
g56
(F918.0
F97.9688586882869
tp206
sbag0
(g186
g2
Ntp207
Rp208
(dp209
g56
(F918.0
F177.9688586882869
tp210
sbag0
(g186
g2
Ntp211
Rp212
(dp213
g56
(F824.0
F297.9688586882869
tp214
sbag0
(g186
g2
Ntp215
Rp216
(dp217
g56
(F714.0
F297.9688586882869
tp218
sbag0
(g186
g2
Ntp219
Rp220
(dp221
g56
(F604.0
F297.9688586882869
tp222
sbag0
(g186
g2
Ntp223
Rp224
(dp225
g56
(F499.0
F297.9688586882869
tp226
sbag0
(g186
g2
Ntp227
Rp228
(dp229
g56
(F404.0
F297.9688586882869
tp230
sbag0
(g186
g2
Ntp231
Rp232
(dp233
g56
(F296.0
F186.9688586882869
tp234
sbag0
(g186
g2
Ntp235
Rp236
(dp237
g56
(F293.0
F99.9688586882869
tp238
sbag0
(g186
g2
Ntp239
Rp240
(dp241
g56
(F1199.0
F99.9688586882869
tp242
sbag0
(g186
g2
Ntp243
Rp244
(dp245
g56
(F1199.0
F224.9688586882869
tp246
sbag0
(g186
g2
Ntp247
Rp248
(dp249
g56
(F1198.0
F337.9688586882869
tp250
sbag0
(g186
g2
Ntp251
Rp252
(dp253
g56
(F1198.0
F452.9688586882869
tp254
sbag0
(g186
g2
Ntp255
Rp256
(dp257
g56
(F1198.0
F562.9688586882869
tp258
sbag0
(g186
g2
Ntp259
Rp260
(dp261
g56
(F1198.0
F692.9688586882869
tp262
sbag0
(g186
g2
Ntp263
Rp264
(dp265
g56
(F1198.0
F827.9688586882869
tp266
sbag0
(g186
g2
Ntp267
Rp268
(dp269
g56
(F1198.0
F932.9688586882869
tp270
sbag0
(g186
g2
Ntp271
Rp272
(dp273
g56
(F1198.0
F1067.968858688287
tp274
sbag0
(g186
g2
Ntp275
Rp276
(dp277
g56
(F1198.0
F1212.968858688287
tp278
sbag0
(g186
g2
Ntp279
Rp280
(dp281
g56
(F1198.0
F1347.968858688287
tp282
sbag0
(g186
g2
Ntp283
Rp284
(dp285
g56
(F1198.0
F1477.968858688287
tp286
sbag0
(g186
g2
Ntp287
Rp288
(dp289
g56
(F1198.0
F1602.968858688287
tp290
sbag0
(g186
g2
Ntp291
Rp292
(dp293
g56
(F1198.0
F1717.968858688287
tp294
sbag0
(g186
g2
Ntp295
Rp296
(dp297
g56
(F1198.0
F1852.968858688287
tp298
sbag0
(g186
g2
Ntp299
Rp300
(dp301
g56
(F1198.0
F1957.9688586882867
tp302
sbag0
(g186
g2
Ntp303
Rp304
(dp305
g56
(F1199.0
F2092.9688586882867
tp306
sbag0
(g186
g2
Ntp307
Rp308
(dp309
g56
(F1199.0
F2207.9688586882867
tp310
sbag0
(g186
g2
Ntp311
Rp312
(dp313
g56
(F1199.0
F2332.9688586882867
tp314
sbag0
(g186
g2
Ntp315
Rp316
(dp317
g56
(F1199.0
F2452.9688586882867
tp318
sbag0
(g186
g2
Ntp319
Rp320
(dp321
g56
(F1199.0
F2597.9688586882867
tp322
sbag0
(g186
g2
Ntp323
Rp324
(dp325
g56
(F1199.0
F2732.9688586882867
tp326
sbag0
(g186
g2
Ntp327
Rp328
(dp329
g56
(F1199.0
F2872.9688586882867
tp330
sbag0
(g186
g2
Ntp331
Rp332
(dp333
g56
(F1199.0
F3007.9688586882867
tp334
sbag0
(g186
g2
Ntp335
Rp336
(dp337
g56
(F1199.0
F3147.9688586882867
tp338
sbag0
(g186
g2
Ntp339
Rp340
(dp341
g56
(F1199.0
F3277.9688586882867
tp342
sbag0
(g186
g2
Ntp343
Rp344
(dp345
g56
(F1199.0
F3412.9688586882867
tp346
sbag0
(g186
g2
Ntp347
Rp348
(dp349
g56
(F1237.0
F3531.9688586882867
tp350
sbag0
(g186
g2
Ntp351
Rp352
(dp353
g56
(F1869.0
F3753.9688586882867
tp354
sbag0
(g186
g2
Ntp355
Rp356
(dp357
g56
(F1873.0
F3828.9688586882867
tp358
sbag0
(g186
g2
Ntp359
Rp360
(dp361
g56
(F2158.0
F3534.9688586882867
tp362
sbag0
(g186
g2
Ntp363
Rp364
(dp365
g56
(F2156.0
F3607.9688586882867
tp366
sbag0
(g186
g2
Ntp367
Rp368
(dp369
g56
(F1585.0
F3656.9688586882867
tp370
sbag0
(g186
g2
Ntp371
Rp372
(dp373
g56
(F1586.0
F3584.9688586882867
tp374
sbag0
(g186
g2
Ntp375
Rp376
(dp377
g56
(F1433.0
F3623.9688586882867
tp378
sbag0
(g186
g2
Ntp379
Rp380
(dp381
g56
(F1325.0
F3599.9688586882867
tp382
sbasS'gvols'
p383
(lp384
g0
(cgravityvolume
GravityVolume
p385
g2
Ntp386
Rp387
(dp388
S'vertices'
p389
(lp390
(F369.24000000000024
F222.90259999851057
tp391
a(F253.0
F335.9025926633608
tp392
a(F259.0
F-37.09740733663921
tp393
a(F368.24000000000024
F55.90259999851056
tp394
asS'g'
p395
(F778.0
F1.0
tp396
sbag0
(g385
g2
Ntp397
Rp398
(dp399
g389
(lp400
(F259.0
F-37.09740733663921
tp401
a(F972.0
F-36.09740733663921
tp402
a(F865.2400000000002
F55.90259999851056
tp403
a(F368.24000000000024
F55.90259999851056
tp404
asg395
(F-4.0
F582.0
tp405
sbag0
(g385
g2
Ntp406
Rp407
(dp408
g389
(lp409
(F972.0
F-36.09740733663921
tp410
a(F970.0
F358.9025926633608
tp411
a(F865.2400000000002
F222.90259999851057
tp412
a(F864.0
F61.90259266336079
tp413
asg395
(F-917.0
F3.0
tp414
sbag0
(g385
g2
Ntp415
Rp416
(dp417
g389
(lp418
(F253.0
F335.9025926633608
tp419
a(F970.0
F358.9025926633608
tp420
a(F865.2400000000002
F222.90259999851057
tp421
a(F369.24000000000024
F222.90259999851057
tp422
asg395
(F10.0
F-713.0
tp423
sbag0
(g385
g2
Ntp424
Rp425
(dp426
g389
(lp427
(F1074.0
F-55.19740733812978
tp428
a(F1335.0
F-55.19740733812978
tp429
a(F1335.0
F1942.8025926618702
tp430
a(F1099.0
F1942.8025926618702
tp431
asg395
(F0.0
F898.0
tp432
sbag0
(g385
g2
Ntp433
Rp434
(dp435
g389
(lp436
(F1675.0
F3794.795661138541
tp437
a(F1678.0
F3408.795661138541
tp438
a(F1474.0
F3405.795661138541
tp439
a(F1470.0
F3792.795661138541
tp440
asg395
(F943.0
F-3.0
tp441
sbag0
(g385
g2
Ntp442
Rp443
(dp444
g389
(lp445
(F1954.0
F3883.8004164540116
tp446
a(F1671.0
F3883.8004164540116
tp447
a(F1678.0
F3408.795661138541
tp448
a(F1956.0
F3413.8004164540116
tp449
asg395
(F875.0
F9.0
tp450
sbag0
(g385
g2
Ntp451
Rp452
(dp453
g389
(lp454
(F2207.0
F3689.8004164540116
tp455
a(F2205.0
F3883.8004164540116
tp456
a(F1954.0
F3883.8004164540116
tp457
a(F1956.0
F3413.8004164540116
tp458
a(F2208.0
F3415.8004164540116
tp459
asg395
(F1047.0
F5.0
tp460
sbasS'emitters'
p461
(lp462
g0
(cparticles
Emitter
p463
g2
Ntp464
Rp465
(dp466
g56
(F1195.0
F-26.203669105743984
tp467
sS'counter'
p468
F0.04999999999998009
sbag0
(g463
g2
Ntp469
Rp470
(dp471
g56
(F1478.0
F3626.795661138541
tp472
sg468
F0.02699999999999357
sbasb.